CCS PCM C Compiler, Version 5.015, 5967               25-may.-22 12:48

               Filename:   C:\Users\est11\Desktop\8vo Semestre\MICROS\ProyectoFinal\Codigo\codigoRespirador.lst

               ROM used:   3688 words (45%)
                           Largest free fragment is 2048
               RAM used:   48 (13%) at main() level
                           82 (22%) worst case
               Stack used: 6 locations (4 in main + 2 for interrupts)
               Stack size: 8

*
0000:  MOVLW  08
0001:  MOVWF  0A
0002:  GOTO   000
0003:  NOP
0004:  MOVWF  7F
0005:  SWAPF  03,W
0006:  CLRF   03
0007:  MOVWF  21
0008:  MOVF   0A,W
0009:  MOVWF  20
000A:  CLRF   0A
000B:  MOVF   04,W
000C:  MOVWF  22
000D:  MOVF   77,W
000E:  MOVWF  23
000F:  MOVF   78,W
0010:  MOVWF  24
0011:  MOVF   79,W
0012:  MOVWF  25
0013:  MOVF   7A,W
0014:  MOVWF  26
0015:  BSF    03.6
0016:  MOVF   0D,W
0017:  BCF    03.6
0018:  MOVWF  27
0019:  BSF    03.6
001A:  MOVF   0F,W
001B:  BCF    03.6
001C:  MOVWF  28
001D:  BSF    03.6
001E:  MOVF   0C,W
001F:  BCF    03.6
0020:  MOVWF  29
0021:  BSF    03.6
0022:  MOVF   0E,W
0023:  BCF    03.6
0024:  MOVWF  2A
0025:  BCF    03.7
0026:  BCF    03.5
0027:  BTFSS  0B.3
0028:  GOTO   02B
0029:  BTFSC  0B.0
002A:  GOTO   052
002B:  MOVLW  8C
002C:  MOVWF  04
002D:  BTFSS  00.0
002E:  GOTO   031
002F:  BTFSC  0C.0
0030:  GOTO   055
0031:  MOVF   22,W
0032:  MOVWF  04
0033:  MOVF   23,W
0034:  MOVWF  77
0035:  MOVF   24,W
0036:  MOVWF  78
0037:  MOVF   25,W
0038:  MOVWF  79
0039:  MOVF   26,W
003A:  MOVWF  7A
003B:  MOVF   27,W
003C:  BSF    03.6
003D:  MOVWF  0D
003E:  BCF    03.6
003F:  MOVF   28,W
0040:  BSF    03.6
0041:  MOVWF  0F
0042:  BCF    03.6
0043:  MOVF   29,W
0044:  BSF    03.6
0045:  MOVWF  0C
0046:  BCF    03.6
0047:  MOVF   2A,W
0048:  BSF    03.6
0049:  MOVWF  0E
004A:  BCF    03.6
004B:  MOVF   20,W
004C:  MOVWF  0A
004D:  SWAPF  21,W
004E:  MOVWF  03
004F:  SWAPF  7F,F
0050:  SWAPF  7F,W
0051:  RETFIE
0052:  BCF    0A.3
0053:  BCF    0A.4
0054:  GOTO   07E
0055:  BCF    0A.3
0056:  BCF    0A.4
0057:  GOTO   060
.................... /////////////////////////////////////////////////////////////////////////// 
.................... ////           UNIVERSIDAD NACIONAL AUTONOMA DE MEXICO                 //// 
.................... ////            FACULTAD DE ESTUDIOS SUPERIORES ARAGON                 //// 
.................... ////                 INGENIERIA EN COMPUTACION                         //// 
.................... ////                                                                   //// 
.................... ////             PROYECTO FINAL PARA LAS MATERIAS DE:                  //// 
.................... //// "MICROPROCESADORES Y MICROCONTROLADORES" Y "SISTEMAS DE CONTROL"  //// 
.................... ///                                                                    //// 
.................... ///                   "RESPIRADOR ARTIFICIAL"                          //// 
.................... ///                                                                    //// 
.................... /// INTEGRANTES:                                                       //// 
.................... ///               *AMADOR TABOADA DIEGO URIEL                          //// 
.................... ///               *ARREDONDO JIMENEZ ALAN DANIEL                       //// 
.................... ///               *RAMIREZ TAPIA LUIS FERNANDO                         //// 
.................... /////////////////////////////////////////////////////////////////////////// 
.................... /* 
.................... ENUNCIADO: EL SIGUIENTE PROGRAMA TIENE COMO FUNCION, MANEJAR UN HARDWARE QUE HA 
.................... SIDO ESPECIALMENTE DISENNADO PARA FUNCIONAR DE LA MANO CON ESTE CODIGO. 
....................  
.................... SU PROPOSITO ES AYUDAR AL MEDICO O PARAMEDICO EN SU LABOR DE "RESUCITACION O AUXILIO" 
.................... EN EL PROCESO DE RESPIRACION,  AL PACIENTE QUE POR SU CUENTA NO PUEDE REALIZAR ESTE PROCESO. 
.................... */ 
....................  
.................... #include<16f887.h>  
.................... //////////// Standard Header file for the PIC16F887 device //////////////// 
.................... /////////////////////////////////////////////////////////////////////////// 
.................... ////        (C) Copyright 1996, 2013 Custom Computer Services          //// 
.................... //// This source code may only be used by licensed users of the CCS C  //// 
.................... //// compiler.  This source code may only be distributed to other      //// 
.................... //// licensed users of the CCS C compiler.  No other use, reproduction //// 
.................... //// or distribution is permitted without written permission.          //// 
.................... //// Derivative programs created using this software in object code    //// 
.................... //// form are not restricted in any way.                               //// 
.................... /////////////////////////////////////////////////////////////////////////// 
.................... #device PIC16F887 
0058:  BCF    0A.0
0059:  BCF    0A.1
005A:  BCF    0A.2
005B:  ADDWF  02,F
005C:  RETLW  28
005D:  RETLW  0C
005E:  RETLW  01
005F:  RETLW  06
*
00F2:  DATA D6,32
00F3:  DATA 6E,3A
00F4:  DATA 69,36
00F5:  DATA 61,32
00F6:  DATA 6F,39
00F7:  DATA C6,34
00F8:  DATA F3,34
00F9:  DATA E3,37
00FA:  DATA 00,00
00FB:  DATA 0A,2B
00FC:  DATA 65,37
00FD:  DATA F4,34
00FE:  DATA EC,30
00FF:  DATA F3,17
0100:  DATA 6D,1D
0101:  DATA A0,12
0102:  DATA 31,17
0103:  DATA 30,33
0104:  DATA 00,00
0105:  DATA D6,32
0106:  DATA 6E,3A
0107:  DATA 69,36
0108:  DATA 61,32
0109:  DATA 6F,39
010A:  DATA CD,30
010B:  DATA EE,3A
010C:  DATA 61,36
010D:  DATA 00,01
010E:  DATA 0A,2B
010F:  DATA 65,37
0110:  DATA F4,34
0111:  DATA EC,30
0112:  DATA F3,17
0113:  DATA 6D,1D
0114:  DATA A0,12
0115:  DATA 31,17
0116:  DATA 30,33
0117:  DATA 00,01
*
01AA:  MOVLW  8E
01AB:  MOVWF  77
01AC:  MOVF   4F,W
01AD:  MOVWF  78
01AE:  MOVF   4E,W
01AF:  MOVWF  79
01B0:  CLRF   7A
01B1:  MOVF   78,F
01B2:  BTFSS  03.2
01B3:  GOTO   1BE
01B4:  MOVF   79,W
01B5:  MOVWF  78
01B6:  CLRF   79
01B7:  MOVLW  08
01B8:  SUBWF  77,F
01B9:  MOVF   78,F
01BA:  BTFSS  03.2
01BB:  GOTO   1BE
01BC:  CLRF   77
01BD:  GOTO   1C6
01BE:  BCF    03.0
01BF:  BTFSC  78.7
01C0:  GOTO   1C5
01C1:  RLF    79,F
01C2:  RLF    78,F
01C3:  DECF   77,F
01C4:  GOTO   1BE
01C5:  BCF    78.7
01C6:  RETURN
01C7:  MOVF   4E,W
01C8:  BTFSC  03.2
01C9:  GOTO   28C
01CA:  MOVWF  5A
01CB:  MOVF   52,W
01CC:  BTFSC  03.2
01CD:  GOTO   28C
01CE:  SUBWF  5A,F
01CF:  BTFSS  03.0
01D0:  GOTO   1D6
01D1:  MOVLW  7F
01D2:  ADDWF  5A,F
01D3:  BTFSC  03.0
01D4:  GOTO   28C
01D5:  GOTO   1DC
01D6:  MOVLW  81
01D7:  SUBWF  5A,F
01D8:  BTFSS  03.0
01D9:  GOTO   28C
01DA:  BTFSC  03.2
01DB:  GOTO   28C
01DC:  MOVF   5A,W
01DD:  MOVWF  77
01DE:  CLRF   78
01DF:  CLRF   79
01E0:  CLRF   7A
01E1:  CLRF   59
01E2:  MOVF   4F,W
01E3:  MOVWF  58
01E4:  BSF    58.7
01E5:  MOVF   50,W
01E6:  MOVWF  57
01E7:  MOVF   51,W
01E8:  MOVWF  56
01E9:  MOVLW  19
01EA:  MOVWF  5A
01EB:  MOVF   55,W
01EC:  SUBWF  56,F
01ED:  BTFSC  03.0
01EE:  GOTO   1FF
01EF:  MOVLW  01
01F0:  SUBWF  57,F
01F1:  BTFSC  03.0
01F2:  GOTO   1FF
01F3:  SUBWF  58,F
01F4:  BTFSC  03.0
01F5:  GOTO   1FF
01F6:  SUBWF  59,F
01F7:  BTFSC  03.0
01F8:  GOTO   1FF
01F9:  INCF   59,F
01FA:  INCF   58,F
01FB:  INCF   57,F
01FC:  MOVF   55,W
01FD:  ADDWF  56,F
01FE:  GOTO   231
01FF:  MOVF   54,W
0200:  SUBWF  57,F
0201:  BTFSC  03.0
0202:  GOTO   21A
0203:  MOVLW  01
0204:  SUBWF  58,F
0205:  BTFSC  03.0
0206:  GOTO   21A
0207:  SUBWF  59,F
0208:  BTFSC  03.0
0209:  GOTO   21A
020A:  INCF   59,F
020B:  INCF   58,F
020C:  MOVF   54,W
020D:  ADDWF  57,F
020E:  MOVF   55,W
020F:  ADDWF  56,F
0210:  BTFSS  03.0
0211:  GOTO   231
0212:  INCF   57,F
0213:  BTFSS  03.2
0214:  GOTO   231
0215:  INCF   58,F
0216:  BTFSS  03.2
0217:  GOTO   231
0218:  INCF   59,F
0219:  GOTO   231
021A:  MOVF   53,W
021B:  IORLW  80
021C:  SUBWF  58,F
021D:  BTFSC  03.0
021E:  GOTO   230
021F:  MOVLW  01
0220:  SUBWF  59,F
0221:  BTFSC  03.0
0222:  GOTO   230
0223:  INCF   59,F
0224:  MOVF   53,W
0225:  IORLW  80
0226:  ADDWF  58,F
0227:  MOVF   54,W
0228:  ADDWF  57,F
0229:  BTFSS  03.0
022A:  GOTO   20E
022B:  INCF   58,F
022C:  BTFSS  03.2
022D:  GOTO   20E
022E:  INCF   59,F
022F:  GOTO   20E
0230:  BSF    7A.0
0231:  DECFSZ 5A,F
0232:  GOTO   234
0233:  GOTO   23F
0234:  BCF    03.0
0235:  RLF    56,F
0236:  RLF    57,F
0237:  RLF    58,F
0238:  RLF    59,F
0239:  BCF    03.0
023A:  RLF    7A,F
023B:  RLF    79,F
023C:  RLF    78,F
023D:  RLF    5B,F
023E:  GOTO   1EB
023F:  BTFSS  5B.0
0240:  GOTO   247
0241:  BCF    03.0
0242:  RRF    78,F
0243:  RRF    79,F
0244:  RRF    7A,F
0245:  RRF    5B,F
0246:  GOTO   24A
0247:  DECF   77,F
0248:  BTFSC  03.2
0249:  GOTO   28C
024A:  BTFSC  5B.7
024B:  GOTO   273
024C:  BCF    03.0
024D:  RLF    56,F
024E:  RLF    57,F
024F:  RLF    58,F
0250:  RLF    59,F
0251:  MOVF   55,W
0252:  SUBWF  56,F
0253:  BTFSC  03.0
0254:  GOTO   25F
0255:  MOVLW  01
0256:  SUBWF  57,F
0257:  BTFSC  03.0
0258:  GOTO   25F
0259:  SUBWF  58,F
025A:  BTFSC  03.0
025B:  GOTO   25F
025C:  SUBWF  59,F
025D:  BTFSS  03.0
025E:  GOTO   282
025F:  MOVF   54,W
0260:  SUBWF  57,F
0261:  BTFSC  03.0
0262:  GOTO   26A
0263:  MOVLW  01
0264:  SUBWF  58,F
0265:  BTFSC  03.0
0266:  GOTO   26A
0267:  SUBWF  59,F
0268:  BTFSS  03.0
0269:  GOTO   282
026A:  MOVF   53,W
026B:  IORLW  80
026C:  SUBWF  58,F
026D:  BTFSC  03.0
026E:  GOTO   273
026F:  MOVLW  01
0270:  SUBWF  59,F
0271:  BTFSS  03.0
0272:  GOTO   282
0273:  INCF   7A,F
0274:  BTFSS  03.2
0275:  GOTO   282
0276:  INCF   79,F
0277:  BTFSS  03.2
0278:  GOTO   282
0279:  INCF   78,F
027A:  BTFSS  03.2
027B:  GOTO   282
027C:  INCF   77,F
027D:  BTFSC  03.2
027E:  GOTO   28C
027F:  RRF    78,F
0280:  RRF    79,F
0281:  RRF    7A,F
0282:  MOVF   4F,W
0283:  MOVWF  5A
0284:  MOVF   53,W
0285:  XORWF  5A,F
0286:  BTFSS  5A.7
0287:  GOTO   28A
0288:  BSF    78.7
0289:  GOTO   290
028A:  BCF    78.7
028B:  GOTO   290
028C:  CLRF   77
028D:  CLRF   78
028E:  CLRF   79
028F:  CLRF   7A
0290:  RETURN
0291:  MOVLW  80
0292:  BTFSC  03.1
0293:  XORWF  53,F
0294:  CLRF   58
0295:  CLRF   59
0296:  MOVF   4F,W
0297:  MOVWF  57
0298:  MOVF   53,W
0299:  XORWF  57,F
029A:  MOVF   4E,W
029B:  BTFSC  03.2
029C:  GOTO   381
029D:  MOVWF  56
029E:  MOVWF  77
029F:  MOVF   52,W
02A0:  BTFSC  03.2
02A1:  GOTO   38A
02A2:  SUBWF  56,F
02A3:  BTFSC  03.2
02A4:  GOTO   326
02A5:  BTFSS  03.0
02A6:  GOTO   2E4
02A7:  MOVF   53,W
02A8:  MOVWF  5C
02A9:  BSF    5C.7
02AA:  MOVF   54,W
02AB:  MOVWF  5B
02AC:  MOVF   55,W
02AD:  MOVWF  5A
02AE:  CLRF   59
02AF:  BCF    03.0
02B0:  RRF    5C,F
02B1:  RRF    5B,F
02B2:  RRF    5A,F
02B3:  RRF    59,F
02B4:  DECFSZ 56,F
02B5:  GOTO   2AE
02B6:  BTFSS  57.7
02B7:  GOTO   2BB
02B8:  BSF    58.0
02B9:  GOTO   39E
02BA:  BCF    58.0
02BB:  BCF    56.0
02BC:  BSF    58.4
02BD:  MOVLW  51
02BE:  MOVWF  04
02BF:  BCF    03.7
02C0:  GOTO   3B3
02C1:  BCF    58.4
02C2:  BTFSC  57.7
02C3:  GOTO   2CE
02C4:  BTFSS  56.0
02C5:  GOTO   2D9
02C6:  RRF    5C,F
02C7:  RRF    5B,F
02C8:  RRF    5A,F
02C9:  RRF    59,F
02CA:  INCF   77,F
02CB:  BTFSC  03.2
02CC:  GOTO   399
02CD:  GOTO   2D9
02CE:  BTFSC  5C.7
02CF:  GOTO   2DC
02D0:  BCF    03.0
02D1:  RLF    59,F
02D2:  RLF    5A,F
02D3:  RLF    5B,F
02D4:  RLF    5C,F
02D5:  DECF   77,F
02D6:  BTFSC  03.2
02D7:  GOTO   399
02D8:  GOTO   2CE
02D9:  BSF    58.6
02DA:  GOTO   346
02DB:  BCF    58.6
02DC:  MOVF   4F,W
02DD:  MOVWF  57
02DE:  BTFSS  57.7
02DF:  GOTO   2E2
02E0:  BSF    5C.7
02E1:  GOTO   392
02E2:  BCF    5C.7
02E3:  GOTO   392
02E4:  MOVF   52,W
02E5:  MOVWF  56
02E6:  MOVWF  77
02E7:  MOVF   4E,W
02E8:  SUBWF  56,F
02E9:  MOVF   4F,W
02EA:  MOVWF  5C
02EB:  BSF    5C.7
02EC:  MOVF   50,W
02ED:  MOVWF  5B
02EE:  MOVF   51,W
02EF:  MOVWF  5A
02F0:  CLRF   59
02F1:  BCF    03.0
02F2:  RRF    5C,F
02F3:  RRF    5B,F
02F4:  RRF    5A,F
02F5:  RRF    59,F
02F6:  DECFSZ 56,F
02F7:  GOTO   2F0
02F8:  BTFSS  57.7
02F9:  GOTO   2FD
02FA:  BSF    58.1
02FB:  GOTO   39E
02FC:  BCF    58.1
02FD:  BCF    56.0
02FE:  BSF    58.5
02FF:  MOVLW  55
0300:  MOVWF  04
0301:  BCF    03.7
0302:  GOTO   3B3
0303:  BCF    58.5
0304:  BTFSC  57.7
0305:  GOTO   310
0306:  BTFSS  56.0
0307:  GOTO   31B
0308:  RRF    5C,F
0309:  RRF    5B,F
030A:  RRF    5A,F
030B:  RRF    59,F
030C:  INCF   77,F
030D:  BTFSC  03.2
030E:  GOTO   399
030F:  GOTO   31B
0310:  BTFSC  5C.7
0311:  GOTO   31E
0312:  BCF    03.0
0313:  RLF    59,F
0314:  RLF    5A,F
0315:  RLF    5B,F
0316:  RLF    5C,F
0317:  DECF   77,F
0318:  BTFSC  03.2
0319:  GOTO   399
031A:  GOTO   310
031B:  BSF    58.7
031C:  GOTO   346
031D:  BCF    58.7
031E:  MOVF   53,W
031F:  MOVWF  57
0320:  BTFSS  57.7
0321:  GOTO   324
0322:  BSF    5C.7
0323:  GOTO   392
0324:  BCF    5C.7
0325:  GOTO   392
0326:  MOVF   53,W
0327:  MOVWF  5C
0328:  BSF    5C.7
0329:  MOVF   54,W
032A:  MOVWF  5B
032B:  MOVF   55,W
032C:  MOVWF  5A
032D:  BTFSS  57.7
032E:  GOTO   333
032F:  BCF    5C.7
0330:  BSF    58.2
0331:  GOTO   39E
0332:  BCF    58.2
0333:  CLRF   59
0334:  BCF    56.0
0335:  MOVLW  51
0336:  MOVWF  04
0337:  BCF    03.7
0338:  GOTO   3B3
0339:  BTFSC  57.7
033A:  GOTO   35C
033B:  MOVF   4F,W
033C:  MOVWF  57
033D:  BTFSS  56.0
033E:  GOTO   346
033F:  RRF    5C,F
0340:  RRF    5B,F
0341:  RRF    5A,F
0342:  RRF    59,F
0343:  INCF   77,F
0344:  BTFSC  03.2
0345:  GOTO   399
0346:  BTFSS  59.7
0347:  GOTO   357
0348:  INCF   5A,F
0349:  BTFSS  03.2
034A:  GOTO   357
034B:  INCF   5B,F
034C:  BTFSS  03.2
034D:  GOTO   357
034E:  INCF   5C,F
034F:  BTFSS  03.2
0350:  GOTO   357
0351:  RRF    5C,F
0352:  RRF    5B,F
0353:  RRF    5A,F
0354:  INCF   77,F
0355:  BTFSC  03.2
0356:  GOTO   399
0357:  BTFSC  58.6
0358:  GOTO   2DB
0359:  BTFSC  58.7
035A:  GOTO   31D
035B:  GOTO   37B
035C:  MOVLW  80
035D:  XORWF  5C,F
035E:  BTFSS  5C.7
035F:  GOTO   364
0360:  GOTO   39E
0361:  MOVF   53,W
0362:  MOVWF  57
0363:  GOTO   371
0364:  MOVF   4F,W
0365:  MOVWF  57
0366:  MOVF   5C,F
0367:  BTFSS  03.2
0368:  GOTO   371
0369:  MOVF   5B,F
036A:  BTFSS  03.2
036B:  GOTO   371
036C:  MOVF   5A,F
036D:  BTFSS  03.2
036E:  GOTO   371
036F:  CLRF   77
0370:  GOTO   392
0371:  BTFSC  5C.7
0372:  GOTO   37B
0373:  BCF    03.0
0374:  RLF    59,F
0375:  RLF    5A,F
0376:  RLF    5B,F
0377:  RLF    5C,F
0378:  DECFSZ 77,F
0379:  GOTO   371
037A:  GOTO   399
037B:  BTFSS  57.7
037C:  GOTO   37F
037D:  BSF    5C.7
037E:  GOTO   392
037F:  BCF    5C.7
0380:  GOTO   392
0381:  MOVF   52,W
0382:  MOVWF  77
0383:  MOVF   53,W
0384:  MOVWF  5C
0385:  MOVF   54,W
0386:  MOVWF  5B
0387:  MOVF   55,W
0388:  MOVWF  5A
0389:  GOTO   392
038A:  MOVF   4E,W
038B:  MOVWF  77
038C:  MOVF   4F,W
038D:  MOVWF  5C
038E:  MOVF   50,W
038F:  MOVWF  5B
0390:  MOVF   51,W
0391:  MOVWF  5A
0392:  MOVF   5C,W
0393:  MOVWF  78
0394:  MOVF   5B,W
0395:  MOVWF  79
0396:  MOVF   5A,W
0397:  MOVWF  7A
0398:  GOTO   3D1
0399:  CLRF   77
039A:  CLRF   78
039B:  CLRF   79
039C:  CLRF   7A
039D:  GOTO   3D1
039E:  CLRF   59
039F:  COMF   5A,F
03A0:  COMF   5B,F
03A1:  COMF   5C,F
03A2:  COMF   59,F
03A3:  INCF   59,F
03A4:  BTFSS  03.2
03A5:  GOTO   3AC
03A6:  INCF   5A,F
03A7:  BTFSS  03.2
03A8:  GOTO   3AC
03A9:  INCF   5B,F
03AA:  BTFSC  03.2
03AB:  INCF   5C,F
03AC:  BTFSC  58.0
03AD:  GOTO   2BA
03AE:  BTFSC  58.1
03AF:  GOTO   2FC
03B0:  BTFSC  58.2
03B1:  GOTO   332
03B2:  GOTO   361
03B3:  MOVF   00,W
03B4:  ADDWF  5A,F
03B5:  BTFSS  03.0
03B6:  GOTO   3BD
03B7:  INCF   5B,F
03B8:  BTFSS  03.2
03B9:  GOTO   3BD
03BA:  INCF   5C,F
03BB:  BTFSC  03.2
03BC:  BSF    56.0
03BD:  DECF   04,F
03BE:  MOVF   00,W
03BF:  ADDWF  5B,F
03C0:  BTFSS  03.0
03C1:  GOTO   3C5
03C2:  INCF   5C,F
03C3:  BTFSC  03.2
03C4:  BSF    56.0
03C5:  DECF   04,F
03C6:  MOVF   00,W
03C7:  BTFSS  00.7
03C8:  XORLW  80
03C9:  ADDWF  5C,F
03CA:  BTFSC  03.0
03CB:  BSF    56.0
03CC:  BTFSC  58.4
03CD:  GOTO   2C1
03CE:  BTFSC  58.5
03CF:  GOTO   303
03D0:  GOTO   339
03D1:  RETURN
*
0409:  MOVF   0B,W
040A:  MOVWF  4E
040B:  BCF    0B.7
040C:  BSF    03.5
040D:  BSF    03.6
040E:  BSF    0C.7
040F:  BSF    0C.0
0410:  NOP
0411:  NOP
0412:  BCF    03.5
0413:  BCF    03.6
0414:  BTFSC  4E.7
0415:  BSF    0B.7
0416:  BSF    03.6
0417:  MOVF   0C,W
0418:  ANDLW  7F
0419:  BTFSC  03.2
041A:  GOTO   45D
041B:  BCF    03.6
041C:  MOVWF  4E
041D:  BSF    03.6
041E:  MOVF   0D,W
041F:  BCF    03.6
0420:  MOVWF  4F
0421:  BSF    03.6
0422:  MOVF   0F,W
0423:  BCF    03.6
0424:  MOVWF  50
0425:  MOVF   4E,W
0426:  MOVWF  5B
0427:  CALL   3D2
0428:  MOVF   4F,W
0429:  BSF    03.6
042A:  MOVWF  0D
042B:  BCF    03.6
042C:  MOVF   50,W
042D:  BSF    03.6
042E:  MOVWF  0F
042F:  BCF    03.6
0430:  MOVF   0B,W
0431:  MOVWF  51
0432:  BCF    0B.7
0433:  BSF    03.5
0434:  BSF    03.6
0435:  BSF    0C.7
0436:  BSF    0C.0
0437:  NOP
0438:  NOP
0439:  BCF    03.5
043A:  BCF    03.6
043B:  BTFSC  51.7
043C:  BSF    0B.7
043D:  BSF    03.6
043E:  RLF    0C,W
043F:  RLF    0E,W
0440:  ANDLW  7F
0441:  BTFSC  03.2
0442:  GOTO   45D
0443:  BCF    03.6
0444:  MOVWF  4E
0445:  BSF    03.6
0446:  MOVF   0D,W
0447:  BCF    03.6
0448:  MOVWF  4F
0449:  BSF    03.6
044A:  MOVF   0F,W
044B:  BCF    03.6
044C:  MOVWF  50
044D:  MOVF   4E,W
044E:  MOVWF  5B
044F:  CALL   3D2
0450:  MOVF   4F,W
0451:  BSF    03.6
0452:  MOVWF  0D
0453:  BCF    03.6
0454:  MOVF   50,W
0455:  BSF    03.6
0456:  MOVWF  0F
0457:  INCF   0D,F
0458:  BTFSC  03.2
0459:  INCF   0F,F
045A:  BCF    03.6
045B:  GOTO   409
045C:  BSF    03.6
045D:  BCF    03.6
045E:  RETURN
045F:  MOVF   0B,W
0460:  MOVWF  4F
0461:  BCF    0B.7
0462:  BSF    03.5
0463:  BSF    03.6
0464:  BSF    0C.7
0465:  BSF    0C.0
0466:  NOP
0467:  NOP
0468:  BCF    03.5
0469:  BCF    03.6
046A:  BTFSC  4F.7
046B:  BSF    0B.7
046C:  BTFSC  03.0
046D:  GOTO   496
046E:  BSF    03.6
046F:  MOVF   0C,W
0470:  ANDLW  7F
0471:  BCF    03.6
0472:  MOVWF  4F
0473:  BSF    03.6
0474:  MOVF   0D,W
0475:  BCF    03.6
0476:  MOVWF  50
0477:  BSF    03.6
0478:  MOVF   0F,W
0479:  BCF    03.6
047A:  MOVWF  51
047B:  MOVF   4F,W
047C:  MOVWF  5B
047D:  CALL   3D2
047E:  MOVF   50,W
047F:  BSF    03.6
0480:  MOVWF  0D
0481:  BCF    03.6
0482:  MOVF   51,W
0483:  BSF    03.6
0484:  MOVWF  0F
0485:  BCF    03.6
0486:  MOVF   0B,W
0487:  MOVWF  52
0488:  BCF    0B.7
0489:  BSF    03.5
048A:  BSF    03.6
048B:  BSF    0C.7
048C:  BSF    0C.0
048D:  NOP
048E:  NOP
048F:  BCF    03.5
0490:  BCF    03.6
0491:  BTFSC  52.7
0492:  BSF    0B.7
0493:  DECFSZ 4E,F
0494:  GOTO   496
0495:  GOTO   4B5
0496:  BSF    03.6
0497:  RLF    0C,W
0498:  RLF    0E,W
0499:  ANDLW  7F
049A:  BCF    03.6
049B:  MOVWF  4F
049C:  BSF    03.6
049D:  MOVF   0D,W
049E:  BCF    03.6
049F:  MOVWF  50
04A0:  BSF    03.6
04A1:  MOVF   0F,W
04A2:  BCF    03.6
04A3:  MOVWF  51
04A4:  MOVF   4F,W
04A5:  MOVWF  5B
04A6:  CALL   3D2
04A7:  MOVF   50,W
04A8:  BSF    03.6
04A9:  MOVWF  0D
04AA:  BCF    03.6
04AB:  MOVF   51,W
04AC:  BSF    03.6
04AD:  MOVWF  0F
04AE:  INCF   0D,F
04AF:  BTFSC  03.2
04B0:  INCF   0F,F
04B1:  BCF    03.0
04B2:  BCF    03.6
04B3:  DECFSZ 4E,F
04B4:  GOTO   45F
04B5:  RETURN
04B6:  MOVF   5B,W
04B7:  BTFSC  03.2
04B8:  GOTO   526
04B9:  MOVWF  63
04BA:  MOVF   5F,W
04BB:  BTFSC  03.2
04BC:  GOTO   526
04BD:  ADDWF  63,F
04BE:  BTFSC  03.0
04BF:  GOTO   4C7
04C0:  MOVLW  7F
04C1:  SUBWF  63,F
04C2:  BTFSS  03.0
04C3:  GOTO   526
04C4:  BTFSC  03.2
04C5:  GOTO   526
04C6:  GOTO   4CB
04C7:  MOVLW  81
04C8:  ADDWF  63,F
04C9:  BTFSC  03.0
04CA:  GOTO   526
04CB:  MOVF   63,W
04CC:  MOVWF  77
04CD:  CLRF   78
04CE:  CLRF   79
04CF:  CLRF   7A
04D0:  MOVF   5C,W
04D1:  MOVWF  67
04D2:  BSF    67.7
04D3:  MOVF   5D,W
04D4:  MOVWF  66
04D5:  MOVF   5E,W
04D6:  MOVWF  65
04D7:  MOVLW  18
04D8:  MOVWF  63
04D9:  CLRF   64
04DA:  BTFSS  65.0
04DB:  GOTO   4F4
04DC:  MOVF   62,W
04DD:  ADDWF  7A,F
04DE:  BTFSS  03.0
04DF:  GOTO   4E6
04E0:  INCF   79,F
04E1:  BTFSS  03.2
04E2:  GOTO   4E6
04E3:  INCF   78,F
04E4:  BTFSC  03.2
04E5:  BSF    64.7
04E6:  MOVF   61,W
04E7:  ADDWF  79,F
04E8:  BTFSS  03.0
04E9:  GOTO   4ED
04EA:  INCF   78,F
04EB:  BTFSC  03.2
04EC:  BSF    64.7
04ED:  MOVF   60,W
04EE:  MOVWF  5D
04EF:  BSF    5D.7
04F0:  MOVF   5D,W
04F1:  ADDWF  78,F
04F2:  BTFSC  03.0
04F3:  BSF    64.7
04F4:  RLF    64,F
04F5:  RRF    78,F
04F6:  RRF    79,F
04F7:  RRF    7A,F
04F8:  RRF    67,F
04F9:  RRF    66,F
04FA:  RRF    65,F
04FB:  BCF    03.0
04FC:  DECFSZ 63,F
04FD:  GOTO   4D9
04FE:  MOVLW  01
04FF:  ADDWF  77,F
0500:  BTFSC  03.0
0501:  GOTO   526
0502:  BTFSC  78.7
0503:  GOTO   50B
0504:  RLF    67,F
0505:  RLF    7A,F
0506:  RLF    79,F
0507:  RLF    78,F
0508:  DECF   77,F
0509:  BTFSC  03.2
050A:  GOTO   526
050B:  BTFSS  67.7
050C:  GOTO   51C
050D:  INCF   7A,F
050E:  BTFSS  03.2
050F:  GOTO   51C
0510:  INCF   79,F
0511:  BTFSS  03.2
0512:  GOTO   51C
0513:  INCF   78,F
0514:  BTFSS  03.2
0515:  GOTO   51C
0516:  RRF    78,F
0517:  RRF    79,F
0518:  RRF    7A,F
0519:  INCF   77,F
051A:  BTFSC  03.2
051B:  GOTO   526
051C:  MOVF   5C,W
051D:  MOVWF  64
051E:  MOVF   60,W
051F:  XORWF  64,F
0520:  BTFSS  64.7
0521:  GOTO   524
0522:  BSF    78.7
0523:  GOTO   52A
0524:  BCF    78.7
0525:  GOTO   52A
0526:  CLRF   77
0527:  CLRF   78
0528:  CLRF   79
0529:  CLRF   7A
052A:  RETURN
052B:  MOVF   5B,W
052C:  SUBLW  B6
052D:  MOVWF  5B
052E:  CLRF   7A
052F:  MOVF   5C,W
0530:  MOVWF  5F
0531:  BSF    5C.7
0532:  BCF    03.0
0533:  RRF    5C,F
0534:  RRF    5D,F
0535:  RRF    5E,F
0536:  RRF    7A,F
0537:  RRF    79,F
0538:  RRF    78,F
0539:  RRF    77,F
053A:  DECFSZ 5B,F
053B:  GOTO   532
053C:  BTFSS  5F.7
053D:  GOTO   549
053E:  COMF   77,F
053F:  COMF   78,F
0540:  COMF   79,F
0541:  COMF   7A,F
0542:  INCF   77,F
0543:  BTFSC  03.2
0544:  INCF   78,F
0545:  BTFSC  03.2
0546:  INCF   79,F
0547:  BTFSC  03.2
0548:  INCF   7A,F
0549:  RETURN
054A:  BTFSC  03.1
054B:  GOTO   54F
054C:  MOVLW  63
054D:  MOVWF  04
054E:  BCF    03.7
054F:  CLRF   77
0550:  CLRF   78
0551:  CLRF   79
0552:  CLRF   7A
0553:  CLRF   63
0554:  CLRF   64
0555:  CLRF   65
0556:  CLRF   66
0557:  MOVF   62,W
0558:  IORWF  61,W
0559:  IORWF  60,W
055A:  IORWF  5F,W
055B:  BTFSC  03.2
055C:  GOTO   58D
055D:  MOVLW  20
055E:  MOVWF  67
055F:  BCF    03.0
0560:  RLF    5B,F
0561:  RLF    5C,F
0562:  RLF    5D,F
0563:  RLF    5E,F
0564:  RLF    63,F
0565:  RLF    64,F
0566:  RLF    65,F
0567:  RLF    66,F
0568:  MOVF   62,W
0569:  SUBWF  66,W
056A:  BTFSS  03.2
056B:  GOTO   576
056C:  MOVF   61,W
056D:  SUBWF  65,W
056E:  BTFSS  03.2
056F:  GOTO   576
0570:  MOVF   60,W
0571:  SUBWF  64,W
0572:  BTFSS  03.2
0573:  GOTO   576
0574:  MOVF   5F,W
0575:  SUBWF  63,W
0576:  BTFSS  03.0
0577:  GOTO   587
0578:  MOVF   5F,W
0579:  SUBWF  63,F
057A:  MOVF   60,W
057B:  BTFSS  03.0
057C:  INCFSZ 60,W
057D:  SUBWF  64,F
057E:  MOVF   61,W
057F:  BTFSS  03.0
0580:  INCFSZ 61,W
0581:  SUBWF  65,F
0582:  MOVF   62,W
0583:  BTFSS  03.0
0584:  INCFSZ 62,W
0585:  SUBWF  66,F
0586:  BSF    03.0
0587:  RLF    77,F
0588:  RLF    78,F
0589:  RLF    79,F
058A:  RLF    7A,F
058B:  DECFSZ 67,F
058C:  GOTO   55F
058D:  MOVF   63,W
058E:  MOVWF  00
058F:  INCF   04,F
0590:  MOVF   64,W
0591:  MOVWF  00
0592:  INCF   04,F
0593:  MOVF   65,W
0594:  MOVWF  00
0595:  INCF   04,F
0596:  MOVF   66,W
0597:  MOVWF  00
0598:  RETURN
0599:  MOVF   04,W
059A:  MOVWF  53
059B:  MOVF   52,W
059C:  MOVWF  55
059D:  BTFSC  03.2
059E:  GOTO   5B8
059F:  MOVF   51,W
05A0:  MOVWF  5E
05A1:  MOVF   50,W
05A2:  MOVWF  5D
05A3:  MOVF   4F,W
05A4:  MOVWF  5C
05A5:  MOVF   4E,W
05A6:  MOVWF  5B
05A7:  CLRF   62
05A8:  CLRF   61
05A9:  MOVLW  20
05AA:  MOVWF  60
05AB:  MOVLW  82
05AC:  MOVWF  5F
05AD:  CALL   4B6
05AE:  MOVF   7A,W
05AF:  MOVWF  51
05B0:  MOVF   79,W
05B1:  MOVWF  50
05B2:  MOVF   78,W
05B3:  MOVWF  4F
05B4:  MOVF   77,W
05B5:  MOVWF  4E
05B6:  DECFSZ 55,F
05B7:  GOTO   59F
05B8:  MOVF   51,W
05B9:  MOVWF  5E
05BA:  MOVF   50,W
05BB:  MOVWF  5D
05BC:  MOVF   4F,W
05BD:  MOVWF  5C
05BE:  MOVF   4E,W
05BF:  MOVWF  5B
05C0:  CALL   52B
05C1:  MOVF   7A,W
05C2:  MOVWF  51
05C3:  MOVF   79,W
05C4:  MOVWF  50
05C5:  MOVF   78,W
05C6:  MOVWF  4F
05C7:  MOVF   77,W
05C8:  MOVWF  4E
05C9:  BTFSS  51.7
05CA:  GOTO   5D8
05CB:  DECF   53,F
05CC:  BSF    53.5
05CD:  COMF   4E,F
05CE:  COMF   4F,F
05CF:  COMF   50,F
05D0:  COMF   51,F
05D1:  INCF   4E,F
05D2:  BTFSC  03.2
05D3:  INCF   4F,F
05D4:  BTFSC  03.2
05D5:  INCF   50,F
05D6:  BTFSC  03.2
05D7:  INCF   51,F
05D8:  MOVLW  3B
05D9:  MOVWF  5A
05DA:  MOVLW  9A
05DB:  MOVWF  59
05DC:  MOVLW  CA
05DD:  MOVWF  58
05DE:  CLRF   57
05DF:  MOVLW  0A
05E0:  MOVWF  55
05E1:  MOVF   52,W
05E2:  BTFSC  03.2
05E3:  INCF   53,F
05E4:  BSF    03.1
05E5:  MOVLW  4E
05E6:  MOVWF  04
05E7:  BCF    03.7
05E8:  MOVF   51,W
05E9:  MOVWF  5E
05EA:  MOVF   50,W
05EB:  MOVWF  5D
05EC:  MOVF   4F,W
05ED:  MOVWF  5C
05EE:  MOVF   4E,W
05EF:  MOVWF  5B
05F0:  MOVF   5A,W
05F1:  MOVWF  62
05F2:  MOVF   59,W
05F3:  MOVWF  61
05F4:  MOVF   58,W
05F5:  MOVWF  60
05F6:  MOVF   57,W
05F7:  MOVWF  5F
05F8:  CALL   54A
05F9:  MOVF   78,W
05FA:  MOVF   77,F
05FB:  BTFSS  03.2
05FC:  GOTO   610
05FD:  INCF   52,W
05FE:  SUBWF  55,W
05FF:  BTFSC  03.2
0600:  GOTO   610
0601:  MOVF   53,W
0602:  BTFSC  03.2
0603:  GOTO   612
0604:  ANDLW  0F
0605:  SUBWF  55,W
0606:  BTFSC  03.2
0607:  GOTO   60A
0608:  BTFSC  03.0
0609:  GOTO   642
060A:  BTFSC  53.7
060B:  GOTO   642
060C:  BTFSC  53.6
060D:  GOTO   612
060E:  MOVLW  20
060F:  GOTO   63E
0610:  MOVLW  20
0611:  ANDWF  53,F
0612:  BTFSS  53.5
0613:  GOTO   620
0614:  BCF    53.5
0615:  MOVF   52,W
0616:  BTFSS  03.2
0617:  DECF   53,F
0618:  MOVF   77,W
0619:  MOVWF  53
061A:  MOVLW  2D
061B:  MOVWF  5B
061C:  CALL   3D2
061D:  MOVF   53,W
061E:  MOVWF  77
061F:  CLRF   53
0620:  MOVF   52,W
0621:  SUBWF  55,W
0622:  BTFSS  03.2
0623:  GOTO   62E
0624:  MOVF   77,W
0625:  MOVWF  53
0626:  MOVLW  2E
0627:  MOVWF  5B
0628:  CALL   3D2
0629:  MOVF   53,W
062A:  MOVWF  77
062B:  MOVLW  20
062C:  ANDWF  53,F
062D:  MOVLW  00
062E:  MOVLW  30
062F:  BTFSS  53.5
0630:  GOTO   63E
0631:  BCF    53.5
0632:  MOVF   52,W
0633:  BTFSS  03.2
0634:  DECF   53,F
0635:  MOVF   77,W
0636:  MOVWF  53
0637:  MOVLW  2D
0638:  MOVWF  5B
0639:  CALL   3D2
063A:  MOVF   53,W
063B:  MOVWF  77
063C:  CLRF   53
063D:  MOVLW  30
063E:  ADDWF  77,F
063F:  MOVF   77,W
0640:  MOVWF  5B
0641:  CALL   3D2
0642:  BCF    03.1
0643:  MOVF   5A,W
0644:  MOVWF  5E
0645:  MOVF   59,W
0646:  MOVWF  5D
0647:  MOVF   58,W
0648:  MOVWF  5C
0649:  MOVF   57,W
064A:  MOVWF  5B
064B:  CLRF   62
064C:  CLRF   61
064D:  CLRF   60
064E:  MOVLW  0A
064F:  MOVWF  5F
0650:  CALL   54A
0651:  MOVF   7A,W
0652:  MOVWF  5A
0653:  MOVF   79,W
0654:  MOVWF  59
0655:  MOVF   78,W
0656:  MOVWF  58
0657:  MOVF   77,W
0658:  MOVWF  57
0659:  DECFSZ 55,F
065A:  GOTO   5E4
065B:  RETURN
065C:  CLRF   56
065D:  MOVF   04,W
065E:  MOVWF  55
065F:  BCF    56.0
0660:  BTFSC  03.7
0661:  BSF    56.0
0662:  SWAPF  4F,W
0663:  IORLW  F0
0664:  MOVWF  51
0665:  ADDWF  51,F
0666:  ADDLW  E2
0667:  MOVWF  52
0668:  ADDLW  32
0669:  MOVWF  54
066A:  MOVF   4F,W
066B:  ANDLW  0F
066C:  ADDWF  52,F
066D:  ADDWF  52,F
066E:  ADDWF  54,F
066F:  ADDLW  E9
0670:  MOVWF  53
0671:  ADDWF  53,F
0672:  ADDWF  53,F
0673:  SWAPF  4E,W
0674:  ANDLW  0F
0675:  ADDWF  53,F
0676:  ADDWF  54,F
0677:  RLF    53,F
0678:  RLF    54,F
0679:  COMF   54,F
067A:  RLF    54,F
067B:  MOVF   4E,W
067C:  ANDLW  0F
067D:  ADDWF  54,F
067E:  RLF    51,F
067F:  MOVLW  07
0680:  MOVWF  50
0681:  MOVLW  0A
0682:  ADDWF  54,F
0683:  DECF   53,F
0684:  BTFSS  03.0
0685:  GOTO   682
0686:  ADDWF  53,F
0687:  DECF   52,F
0688:  BTFSS  03.0
0689:  GOTO   686
068A:  ADDWF  52,F
068B:  DECF   51,F
068C:  BTFSS  03.0
068D:  GOTO   68A
068E:  ADDWF  51,F
068F:  DECF   50,F
0690:  BTFSS  03.0
0691:  GOTO   68E
0692:  MOVLW  50
0693:  MOVWF  04
0694:  BCF    03.7
0695:  MOVLW  07
0696:  ANDWF  55,W
0697:  BCF    55.6
0698:  ADDWF  04,F
0699:  MOVLW  54
069A:  SUBWF  04,W
069B:  BTFSC  03.2
069C:  BSF    55.6
069D:  MOVF   00,W
069E:  MOVWF  77
069F:  BTFSS  03.2
06A0:  GOTO   6A9
06A1:  BTFSC  55.6
06A2:  GOTO   6A9
06A3:  BTFSC  55.4
06A4:  GOTO   6B1
06A5:  BTFSC  55.3
06A6:  GOTO   6A9
06A7:  MOVLW  20
06A8:  GOTO   6AC
06A9:  BSF    55.3
06AA:  BCF    55.4
06AB:  MOVLW  30
06AC:  ADDWF  77,F
06AD:  MOVF   77,W
06AE:  BTFSS  0C.4
06AF:  GOTO   6AE
06B0:  MOVWF  19
06B1:  INCF   04,F
06B2:  BTFSS  55.6
06B3:  GOTO   699
06B4:  RETURN
06B5:  MOVF   04,W
06B6:  MOVWF  53
06B7:  MOVF   52,W
06B8:  MOVWF  55
06B9:  BTFSC  03.2
06BA:  GOTO   6D4
06BB:  MOVF   51,W
06BC:  MOVWF  5E
06BD:  MOVF   50,W
06BE:  MOVWF  5D
06BF:  MOVF   4F,W
06C0:  MOVWF  5C
06C1:  MOVF   4E,W
06C2:  MOVWF  5B
06C3:  CLRF   62
06C4:  CLRF   61
06C5:  MOVLW  20
06C6:  MOVWF  60
06C7:  MOVLW  82
06C8:  MOVWF  5F
06C9:  CALL   4B6
06CA:  MOVF   7A,W
06CB:  MOVWF  51
06CC:  MOVF   79,W
06CD:  MOVWF  50
06CE:  MOVF   78,W
06CF:  MOVWF  4F
06D0:  MOVF   77,W
06D1:  MOVWF  4E
06D2:  DECFSZ 55,F
06D3:  GOTO   6BB
06D4:  MOVF   51,W
06D5:  MOVWF  5E
06D6:  MOVF   50,W
06D7:  MOVWF  5D
06D8:  MOVF   4F,W
06D9:  MOVWF  5C
06DA:  MOVF   4E,W
06DB:  MOVWF  5B
06DC:  CALL   52B
06DD:  MOVF   7A,W
06DE:  MOVWF  51
06DF:  MOVF   79,W
06E0:  MOVWF  50
06E1:  MOVF   78,W
06E2:  MOVWF  4F
06E3:  MOVF   77,W
06E4:  MOVWF  4E
06E5:  BTFSS  51.7
06E6:  GOTO   6F4
06E7:  DECF   53,F
06E8:  BSF    53.5
06E9:  COMF   4E,F
06EA:  COMF   4F,F
06EB:  COMF   50,F
06EC:  COMF   51,F
06ED:  INCF   4E,F
06EE:  BTFSC  03.2
06EF:  INCF   4F,F
06F0:  BTFSC  03.2
06F1:  INCF   50,F
06F2:  BTFSC  03.2
06F3:  INCF   51,F
06F4:  MOVLW  3B
06F5:  MOVWF  5A
06F6:  MOVLW  9A
06F7:  MOVWF  59
06F8:  MOVLW  CA
06F9:  MOVWF  58
06FA:  CLRF   57
06FB:  MOVLW  0A
06FC:  MOVWF  55
06FD:  MOVF   52,W
06FE:  BTFSC  03.2
06FF:  INCF   53,F
0700:  BSF    03.1
0701:  MOVLW  4E
0702:  MOVWF  04
0703:  BCF    03.7
0704:  MOVF   51,W
0705:  MOVWF  5E
0706:  MOVF   50,W
0707:  MOVWF  5D
0708:  MOVF   4F,W
0709:  MOVWF  5C
070A:  MOVF   4E,W
070B:  MOVWF  5B
070C:  MOVF   5A,W
070D:  MOVWF  62
070E:  MOVF   59,W
070F:  MOVWF  61
0710:  MOVF   58,W
0711:  MOVWF  60
0712:  MOVF   57,W
0713:  MOVWF  5F
0714:  CALL   54A
0715:  MOVF   78,W
0716:  MOVF   77,F
0717:  BTFSS  03.2
0718:  GOTO   72C
0719:  INCF   52,W
071A:  SUBWF  55,W
071B:  BTFSC  03.2
071C:  GOTO   72C
071D:  MOVF   53,W
071E:  BTFSC  03.2
071F:  GOTO   72E
0720:  ANDLW  0F
0721:  SUBWF  55,W
0722:  BTFSC  03.2
0723:  GOTO   726
0724:  BTFSC  03.0
0725:  GOTO   762
0726:  BTFSC  53.7
0727:  GOTO   762
0728:  BTFSC  53.6
0729:  GOTO   72E
072A:  MOVLW  20
072B:  GOTO   75D
072C:  MOVLW  20
072D:  ANDWF  53,F
072E:  BTFSS  53.5
072F:  GOTO   73D
0730:  BCF    53.5
0731:  MOVF   52,W
0732:  BTFSS  03.2
0733:  DECF   53,F
0734:  MOVF   77,W
0735:  MOVWF  53
0736:  MOVLW  2D
0737:  BTFSS  0C.4
0738:  GOTO   737
0739:  MOVWF  19
073A:  MOVF   53,W
073B:  MOVWF  77
073C:  CLRF   53
073D:  MOVF   52,W
073E:  SUBWF  55,W
073F:  BTFSS  03.2
0740:  GOTO   74C
0741:  MOVF   77,W
0742:  MOVWF  53
0743:  MOVLW  2E
0744:  BTFSS  0C.4
0745:  GOTO   744
0746:  MOVWF  19
0747:  MOVF   53,W
0748:  MOVWF  77
0749:  MOVLW  20
074A:  ANDWF  53,F
074B:  MOVLW  00
074C:  MOVLW  30
074D:  BTFSS  53.5
074E:  GOTO   75D
074F:  BCF    53.5
0750:  MOVF   52,W
0751:  BTFSS  03.2
0752:  DECF   53,F
0753:  MOVF   77,W
0754:  MOVWF  53
0755:  MOVLW  2D
0756:  BTFSS  0C.4
0757:  GOTO   756
0758:  MOVWF  19
0759:  MOVF   53,W
075A:  MOVWF  77
075B:  CLRF   53
075C:  MOVLW  30
075D:  ADDWF  77,F
075E:  MOVF   77,W
075F:  BTFSS  0C.4
0760:  GOTO   75F
0761:  MOVWF  19
0762:  BCF    03.1
0763:  MOVF   5A,W
0764:  MOVWF  5E
0765:  MOVF   59,W
0766:  MOVWF  5D
0767:  MOVF   58,W
0768:  MOVWF  5C
0769:  MOVF   57,W
076A:  MOVWF  5B
076B:  CLRF   62
076C:  CLRF   61
076D:  CLRF   60
076E:  MOVLW  0A
076F:  MOVWF  5F
0770:  CALL   54A
0771:  MOVF   7A,W
0772:  MOVWF  5A
0773:  MOVF   79,W
0774:  MOVWF  59
0775:  MOVF   78,W
0776:  MOVWF  58
0777:  MOVF   77,W
0778:  MOVWF  57
0779:  DECFSZ 55,F
077A:  GOTO   700
077B:  RETURN
077C:  MOVLW  8E
077D:  MOVWF  77
077E:  MOVF   4E,W
077F:  SUBWF  77,F
0780:  MOVF   4F,W
0781:  MOVWF  79
0782:  MOVF   50,W
0783:  MOVWF  78
0784:  BSF    79.7
0785:  MOVF   77,F
0786:  BTFSC  03.2
0787:  GOTO   793
0788:  BCF    03.0
0789:  MOVF   79,F
078A:  BTFSS  03.2
078B:  GOTO   78F
078C:  MOVF   78,F
078D:  BTFSC  03.2
078E:  GOTO   793
078F:  RRF    79,F
0790:  RRF    78,F
0791:  DECFSZ 77,F
0792:  GOTO   788
0793:  BTFSS  4F.7
0794:  GOTO   79A
0795:  COMF   78,F
0796:  COMF   79,F
0797:  INCF   78,F
0798:  BTFSC  03.2
0799:  INCF   79,F
079A:  RETURN
....................  
.................... #list 
....................  
.................... #fuses INTRC_IO,NOWDT,PUT,NOBROWNOUT 
.................... #device ADC=8 
.................... #use delay(INTERNAL=500000) //Configuracion del reloj. 
*
0070:  MOVLW  6C
0071:  MOVWF  04
0072:  BCF    03.7
0073:  MOVF   00,W
0074:  BTFSC  03.2
0075:  GOTO   07D
0076:  MOVLW  28
0077:  MOVWF  77
0078:  DECFSZ 77,F
0079:  GOTO   078
007A:  NOP
007B:  DECFSZ 00,F
007C:  GOTO   076
007D:  RETURN
.................... #include"lcd.h" 
.................... /////////////////////////////////////////////////////////////////////////// 
.................... ////                             LCDD.C                                //// 
.................... ////                 Driver for common LCD modules                     //// 
.................... ////                                                                   //// 
.................... ////  lcd_init()   Must be called before any other function.           //// 
.................... ////                                                                   //// 
.................... ////  lcd_putc(c)  Will display c on the next position of the LCD.     //// 
.................... ////                     The following have special meaning:           //// 
.................... ////                      \f  Clear display                            //// 
.................... ////                      \n  Go to start of second line               //// 
.................... ////                      \b  Move back one position                   //// 
.................... ////                                                                   //// 
.................... ////  lcd_gotoxy(x,y) Set write position on LCD (upper left is 1,1)    //// 
.................... ////                                                                   //// 
.................... ////  lcd_getc(x,y)   Returns character at position x,y on LCD         //// 
.................... ////                                                                   //// 
.................... /////////////////////////////////////////////////////////////////////////// 
.................... ////        (C) Copyright 1996,2003 Custom Computer Services           //// 
.................... //// This source code may only be used by licensed users of the CCS C  //// 
.................... //// compiler.  This source code may only be distributed to other      //// 
.................... //// licensed users of the CCS C compiler.  No other use, reproduction //// 
.................... //// or distribution is permitted without written permission.          //// 
.................... //// Derivative programs created using this software in object code    //// 
.................... //// form are not restricted in any way.                               //// 
.................... /////////////////////////////////////////////////////////////////////////// 
....................  
.................... // As defined in the following structure the pin connection is as follows: 
.................... //     D0  enable 
.................... //     D1  rs 
.................... //     D2  rw 
.................... //     D4  D4 
.................... //     D5  D5 
.................... //     D6  D6 
.................... //     D7  D7 
.................... // 
.................... //   LCD pins D0-D3 are not used and PIC D3 is not used. 
....................  
.................... // Un-comment the following define to use port B 
.................... // #define use_portb_lcd TRUE 
....................  
.................... struct lcd_pin_map {                 // This structure is overlayed 
....................            BOOLEAN enable;           // on to an I/O port to gain 
....................            BOOLEAN rs;               // access to the LCD pins. 
....................            BOOLEAN rw;               // The bits are allocated from 
....................            BOOLEAN unused;           // low order up.  ENABLE will 
....................            int     data : 4;         // be pin B0. 
....................         } lcd; 
....................  
....................  
.................... #if defined use_portb_lcd 
....................    //#locate lcd = getenv("sfr:PORTB")    // This puts the entire structure over the port 
....................    #ifdef __pch__ 
....................     #locate lcd = 0xf81 
....................    #else 
....................     #locate lcd = 6 
....................    #endif 
....................    #define set_tris_lcd(x) set_tris_b(x) 
.................... #else 
....................    //#locate lcd = getenv("sfr:PORTD")    // This puts the entire structure over the port 
....................    #ifdef __pch__ 
....................     #locate lcd = 0xf83 
....................    #else 
....................     #locate lcd = 8 
....................    #endif 
....................    #define set_tris_lcd(x) set_tris_d(x) 
.................... #endif 
....................  
....................  
.................... #define lcd_type 2           // 0=5x7, 1=5x10, 2=2 lines 
.................... #define lcd_line_two 0x40    // LCD RAM address for the second line 
....................  
....................  
.................... BYTE const LCD_INIT_STRING[4] = {0x20 | (lcd_type << 2), 0xc, 1, 6}; 
....................                              // These bytes need to be sent to the LCD 
....................                              // to start it up. 
....................  
....................  
....................                              // The following are used for setting 
....................                              // the I/O port direction register. 
....................  
.................... struct lcd_pin_map const LCD_WRITE = {0,0,0,0,0}; // For write mode all pins are out 
.................... struct lcd_pin_map const LCD_READ = {0,0,0,0,15}; // For read mode data pins are in 
....................  
....................  
....................  
.................... BYTE lcd_read_byte() { 
....................       BYTE low,high; 
....................       set_tris_lcd(LCD_READ); 
*
013F:  MOVLW  F0
0140:  BSF    03.5
0141:  MOVWF  08
....................       lcd.rw = 1; 
0142:  BCF    03.5
0143:  BSF    08.2
....................       delay_cycles(1); 
0144:  NOP
....................       lcd.enable = 1; 
0145:  BSF    08.0
....................       delay_cycles(1); 
0146:  NOP
....................       high = lcd.data; 
0147:  MOVF   08,W
0148:  SWAPF  08,W
0149:  ANDLW  0F
014A:  MOVWF  63
....................       lcd.enable = 0; 
014B:  BCF    08.0
....................       delay_cycles(1); 
014C:  NOP
....................       lcd.enable = 1; 
014D:  BSF    08.0
....................       delay_us(1); 
....................       low = lcd.data; 
014E:  MOVF   08,W
014F:  SWAPF  08,W
0150:  ANDLW  0F
0151:  MOVWF  62
....................       lcd.enable = 0; 
0152:  BCF    08.0
....................       set_tris_lcd(LCD_WRITE); 
0153:  MOVLW  00
0154:  BSF    03.5
0155:  MOVWF  08
....................       return( (high<<4) | low); 
0156:  BCF    03.5
0157:  SWAPF  63,W
0158:  MOVWF  77
0159:  MOVLW  F0
015A:  ANDWF  77,F
015B:  MOVF   77,W
015C:  IORWF  62,W
015D:  MOVWF  78
.................... } 
....................  
....................  
.................... void lcd_send_nibble( BYTE n ) { 
....................       lcd.data = n; 
*
0133:  SWAPF  63,W
0134:  ANDLW  F0
0135:  MOVWF  77
0136:  MOVLW  0F
0137:  ANDWF  08,W
0138:  IORWF  77,W
0139:  MOVWF  08
....................       delay_cycles(1); 
013A:  NOP
....................       lcd.enable = 1; 
013B:  BSF    08.0
....................       delay_us(2); 
....................       lcd.enable = 0; 
013C:  BCF    08.0
013D:  RETURN
.................... } 
....................  
....................  
.................... void lcd_send_byte( BYTE address, BYTE n ) { 
....................  
....................       lcd.rs = 0; 
013E:  BCF    08.1
....................       while ( bit_test(lcd_read_byte(),7) ) ; 
*
015E:  MOVF   78,W
015F:  MOVWF  62
0160:  BTFSC  62.7
0161:  GOTO   13F
....................       lcd.rs = address; 
0162:  BTFSS  60.0
0163:  BCF    08.1
0164:  BTFSC  60.0
0165:  BSF    08.1
....................       delay_cycles(1); 
0166:  NOP
....................       lcd.rw = 0; 
0167:  BCF    08.2
....................       delay_cycles(1); 
0168:  NOP
....................       lcd.enable = 0; 
0169:  BCF    08.0
....................       lcd_send_nibble(n >> 4); 
016A:  SWAPF  61,W
016B:  MOVWF  62
016C:  MOVLW  0F
016D:  ANDWF  62,F
016E:  MOVF   62,W
016F:  MOVWF  63
0170:  CALL   133
....................       lcd_send_nibble(n & 0xf); 
0171:  MOVF   61,W
0172:  ANDLW  0F
0173:  MOVWF  62
0174:  MOVWF  63
0175:  CALL   133
0176:  RETURN
.................... } 
....................  
....................  
.................... void lcd_init() { 
....................     BYTE i; 
....................     set_tris_lcd(LCD_WRITE); 
0177:  MOVLW  00
0178:  BSF    03.5
0179:  MOVWF  08
....................     lcd.rs = 0; 
017A:  BCF    03.5
017B:  BCF    08.1
....................     lcd.rw = 0; 
017C:  BCF    08.2
....................     lcd.enable = 0; 
017D:  BCF    08.0
017E:  CLRF   2B
017F:  BTFSC  0B.7
0180:  BSF    2B.7
0181:  BCF    0B.7
....................     delay_ms(15); 
0182:  MOVLW  0F
0183:  MOVWF  6C
0184:  CALL   070
0185:  BTFSC  2B.7
0186:  BSF    0B.7
....................     for(i=1;i<=3;++i) { 
0187:  MOVLW  01
0188:  MOVWF  4E
0189:  MOVF   4E,W
018A:  SUBLW  03
018B:  BTFSS  03.0
018C:  GOTO   198
....................        lcd_send_nibble(3); 
018D:  MOVLW  03
018E:  MOVWF  63
018F:  CALL   133
....................        delay_ms(5); 
0190:  MOVLW  CF
0191:  MOVWF  77
0192:  DECFSZ 77,F
0193:  GOTO   192
0194:  GOTO   195
0195:  NOP
0196:  INCF   4E,F
0197:  GOTO   189
....................     } 
....................     lcd_send_nibble(2); 
0198:  MOVLW  02
0199:  MOVWF  63
019A:  CALL   133
....................     for(i=0;i<=3;++i) 
019B:  CLRF   4E
019C:  MOVF   4E,W
019D:  SUBLW  03
019E:  BTFSS  03.0
019F:  GOTO   1A9
....................        lcd_send_byte(0,LCD_INIT_STRING[i]); 
01A0:  MOVF   4E,W
01A1:  CALL   058
01A2:  MOVWF  4F
01A3:  CLRF   60
01A4:  MOVF   4F,W
01A5:  MOVWF  61
01A6:  CALL   13E
01A7:  INCF   4E,F
01A8:  GOTO   19C
01A9:  RETURN
.................... } 
....................  
....................  
.................... void lcd_gotoxy( BYTE x, BYTE y) { 
....................    BYTE address; 
....................  
....................    if(y!=1) 
*
03EC:  DECFSZ 5D,W
03ED:  GOTO   3EF
03EE:  GOTO   3F2
....................      address=lcd_line_two; 
03EF:  MOVLW  40
03F0:  MOVWF  5E
03F1:  GOTO   3F3
....................    else 
....................      address=0; 
03F2:  CLRF   5E
....................    address+=x-1; 
03F3:  MOVLW  01
03F4:  SUBWF  5C,W
03F5:  ADDWF  5E,F
....................    lcd_send_byte(0,0x80|address); 
03F6:  MOVF   5E,W
03F7:  IORLW  80
03F8:  MOVWF  5F
03F9:  CLRF   60
03FA:  MOVF   5F,W
03FB:  MOVWF  61
03FC:  CALL   13E
.................... } 
....................  
.................... void lcd_putc( char c) { 
....................    switch (c) { 
*
03D2:  MOVF   5B,W
03D3:  XORLW  0C
03D4:  BTFSC  03.2
03D5:  GOTO   3DD
03D6:  XORLW  06
03D7:  BTFSC  03.2
03D8:  GOTO   3E8
03D9:  XORLW  02
03DA:  BTFSC  03.2
03DB:  GOTO   3FE
03DC:  GOTO   403
....................      case '\f'   : lcd_send_byte(0,1); 
03DD:  CLRF   60
03DE:  MOVLW  01
03DF:  MOVWF  61
03E0:  CALL   13E
....................                    delay_ms(2); 
03E1:  MOVLW  52
03E2:  MOVWF  77
03E3:  DECFSZ 77,F
03E4:  GOTO   3E3
03E5:  GOTO   3E6
03E6:  NOP
....................                                            break; 
03E7:  GOTO   408
....................      case '\n'   : lcd_gotoxy(1,2);        break; 
03E8:  MOVLW  01
03E9:  MOVWF  5C
03EA:  MOVLW  02
03EB:  MOVWF  5D
*
03FD:  GOTO   408
....................      case '\b'   : lcd_send_byte(0,0x10);  break; 
03FE:  CLRF   60
03FF:  MOVLW  10
0400:  MOVWF  61
0401:  CALL   13E
0402:  GOTO   408
....................      default     : lcd_send_byte(1,c);     break; 
0403:  MOVLW  01
0404:  MOVWF  60
0405:  MOVF   5B,W
0406:  MOVWF  61
0407:  CALL   13E
....................    } 
0408:  RETURN
.................... } 
....................  
.................... char lcd_getc( BYTE x, BYTE y) { 
....................    char value; 
....................  
....................     lcd_gotoxy(x,y); 
....................     while ( bit_test(lcd_read_byte(),7) ); // wait until busy flag is low 
....................     lcd.rs=1; 
....................     value = lcd_read_byte(); 
....................     lcd.rs=0; 
....................     return(value); 
.................... } 
....................  
.................... #use RS232(baud=9600,xmit=PIN_C6,rcv=PIN_C7,timeout=100) 
*
0118:  MOVLW  01
0119:  MOVWF  4F
011A:  MOVLW  40
011B:  MOVWF  4E
011C:  MOVLW  0C
011D:  MOVWF  77
011E:  DECFSZ 77,F
011F:  GOTO   11E
0120:  GOTO   121
0121:  DECFSZ 4E,F
0122:  GOTO   128
0123:  DECFSZ 4F,F
0124:  GOTO   128
0125:  CLRF   2C
0126:  CLRF   78
0127:  GOTO   132
0128:  BTFSS  0C.5
0129:  GOTO   11C
012A:  MOVF   18,W
012B:  MOVWF  2C
012C:  MOVF   1A,W
012D:  MOVWF  78
012E:  BTFSS  2C.1
012F:  GOTO   132
0130:  BCF    18.4
0131:  BSF    18.4
0132:  RETURN
.................... //Configuracion de puertos 
.................... #use fast_io(D) 
.................... #use fast_io(E) 
....................  
.................... int8 var_respiraciones=0; 
....................  
.................... int16 var_adc=0; 
....................  
....................  
.................... float seg_ondulacion=0; 
....................  
.................... int16 pos=31; 
.................... int16 t_subida=0; 
.................... int16 t_bajada_meseta=0; 
.................... int16 t_meseta=0; 
.................... int16 t_bajada=0; 
.................... int16 t_pausa=0; 
....................  
....................  
.................... int1 f_emergencia=0; 
.................... int1 f_stop=0; 
.................... int1 f_inicio=0; 
.................... int1 f_ventilar=0; 
....................  
.................... int16 variable;  
.................... float ventilas; 
....................  
.................... char modo = 'A'; 
.................... char instruccion; 
....................     
....................  
.................... void mostrar_variable(int8 var_sep); 
.................... void solo_mostrar_variable(void); 
....................  
....................  
.................... #INT_TIMER1 
.................... void inttimer1_(){ 
....................    solo_mostrar_variable(); 
....................    output_toggle(PIN_C3); 
*
0060:  BCF    49.3
0061:  MOVF   49,W
0062:  BSF    03.5
0063:  MOVWF  07
0064:  MOVLW  08
0065:  BCF    03.5
0066:  XORWF  07,F
....................    set_timer1(59036); 
0067:  CLRF   0E
0068:  MOVLW  E6
0069:  MOVWF  0F
006A:  MOVLW  9C
006B:  MOVWF  0E
.................... } 
....................  
006C:  BCF    0C.0
006D:  BCF    0A.3
006E:  BCF    0A.4
006F:  GOTO   031
.................... #INT_RB 
.................... void IntPortB4_7(){ 
....................    if(!input(PIN_B4) && input(PIN_B5) && input(PIN_B7)){ 
*
007E:  BSF    03.5
007F:  BSF    06.4
0080:  BCF    03.5
0081:  BTFSC  06.4
0082:  GOTO   08F
0083:  BSF    03.5
0084:  BSF    06.5
0085:  BCF    03.5
0086:  BTFSS  06.5
0087:  GOTO   08F
0088:  BSF    03.5
0089:  BSF    06.7
008A:  BCF    03.5
008B:  BTFSS  06.7
008C:  GOTO   08F
....................       f_inicio=1; 
008D:  BSF    40.2
....................    } 
008E:  GOTO   0EB
....................    else if(!input(PIN_B5) && input(PIN_B4) && input(PIN_B7)){ 
008F:  BSF    03.5
0090:  BSF    06.5
0091:  BCF    03.5
0092:  BTFSC  06.5
0093:  GOTO   0A1
0094:  BSF    03.5
0095:  BSF    06.4
0096:  BCF    03.5
0097:  BTFSS  06.4
0098:  GOTO   0A1
0099:  BSF    03.5
009A:  BSF    06.7
009B:  BCF    03.5
009C:  BTFSS  06.7
009D:  GOTO   0A1
....................       reset_cpu(); 
009E:  CLRF   0A
009F:  GOTO   000
....................    } 
00A0:  GOTO   0EB
....................    else if(!input(PIN_B7) && input(PIN_B5) && input(PIN_B4)){ 
00A1:  BSF    03.5
00A2:  BSF    06.7
00A3:  BCF    03.5
00A4:  BTFSC  06.7
00A5:  GOTO   0EB
00A6:  BSF    03.5
00A7:  BSF    06.5
00A8:  BCF    03.5
00A9:  BTFSS  06.5
00AA:  GOTO   0EB
00AB:  BSF    03.5
00AC:  BSF    06.4
00AD:  BCF    03.5
00AE:  BTFSS  06.4
00AF:  GOTO   0EB
....................       if(f_emergencia==0){ 
00B0:  BTFSC  40.0
00B1:  GOTO   0D3
....................          setup_ccp2(CCP_PWM); 
00B2:  BCF    49.1
00B3:  MOVF   49,W
00B4:  BSF    03.5
00B5:  MOVWF  07
00B6:  BCF    03.5
00B7:  BCF    07.1
00B8:  MOVLW  0C
00B9:  MOVWF  1D
....................          int16 pwm_sonido=315; 
00BA:  MOVLW  01
00BB:  MOVWF  69
00BC:  MOVLW  3B
00BD:  MOVWF  68
....................          set_pwm2_duty(pwm_sonido); 
00BE:  MOVF   69,W
00BF:  MOVWF  79
00C0:  MOVF   68,W
00C1:  MOVWF  78
00C2:  RRF    79,F
00C3:  RRF    78,F
00C4:  RRF    79,F
00C5:  RRF    78,F
00C6:  RRF    79,F
00C7:  MOVF   78,W
00C8:  MOVWF  1B
00C9:  RRF    79,F
00CA:  RRF    79,W
00CB:  ANDLW  30
00CC:  MOVWF  77
00CD:  MOVF   1D,W
00CE:  ANDLW  CF
00CF:  IORWF  77,W
00D0:  MOVWF  1D
....................          f_emergencia=1; 
00D1:  BSF    40.0
....................       } 
00D2:  GOTO   0EB
....................       else{ 
....................          f_emergencia=0; 
00D3:  BCF    40.0
....................          setup_ccp1(CCP_OFF); 
00D4:  MOVLW  F0
00D5:  ANDWF  17,F
....................          int16 pwm_sonido=0; 
00D6:  CLRF   6B
00D7:  CLRF   6A
....................          set_pwm2_duty(pwm_sonido); 
00D8:  MOVF   6B,W
00D9:  MOVWF  79
00DA:  MOVF   6A,W
00DB:  MOVWF  78
00DC:  RRF    79,F
00DD:  RRF    78,F
00DE:  RRF    79,F
00DF:  RRF    78,F
00E0:  RRF    79,F
00E1:  MOVF   78,W
00E2:  MOVWF  1B
00E3:  RRF    79,F
00E4:  RRF    79,W
00E5:  ANDLW  30
00E6:  MOVWF  77
00E7:  MOVF   1D,W
00E8:  ANDLW  CF
00E9:  IORWF  77,W
00EA:  MOVWF  1D
....................       } 
....................    } 
....................    delay_ms(200); 
00EB:  MOVLW  C8
00EC:  MOVWF  6C
00ED:  CALL   070
00EE:  BCF    0B.0
00EF:  BCF    0A.3
00F0:  BCF    0A.4
00F1:  GOTO   031
.................... } 
....................  
.................... void main(){ 
*
0800:  MOVF   03,W
0801:  ANDLW  1F
0802:  MOVWF  03
0803:  MOVLW  31
0804:  BSF    03.5
0805:  MOVWF  0F
0806:  MOVF   0F,W
0807:  BCF    03.5
0808:  CLRF   2C
0809:  BSF    03.5
080A:  BSF    03.6
080B:  BSF    07.3
080C:  MOVLW  0C
080D:  BCF    03.6
080E:  MOVWF  19
080F:  MOVLW  00
0810:  MOVWF  1A
0811:  MOVLW  A6
0812:  MOVWF  18
0813:  MOVLW  90
0814:  BCF    03.5
0815:  MOVWF  18
0816:  CLRF   2D
0817:  CLRF   2F
0818:  CLRF   2E
0819:  CLRF   33
081A:  CLRF   32
081B:  CLRF   31
081C:  CLRF   30
081D:  CLRF   35
081E:  MOVLW  1F
081F:  MOVWF  34
0820:  CLRF   37
0821:  CLRF   36
0822:  CLRF   39
0823:  CLRF   38
0824:  CLRF   3B
0825:  CLRF   3A
0826:  CLRF   3D
0827:  CLRF   3C
0828:  CLRF   3F
0829:  CLRF   3E
082A:  BCF    40.0
082B:  BCF    40.1
082C:  BCF    40.2
082D:  BCF    40.3
082E:  MOVLW  41
082F:  MOVWF  47
0830:  MOVLW  FF
0831:  MOVWF  49
0832:  BSF    03.5
0833:  BSF    03.6
0834:  MOVF   09,W
0835:  ANDLW  C0
0836:  MOVWF  09
0837:  BCF    03.6
0838:  BCF    1F.4
0839:  BCF    1F.5
083A:  MOVLW  00
083B:  BSF    03.6
083C:  MOVWF  08
083D:  BCF    03.5
083E:  CLRF   07
083F:  CLRF   08
0840:  CLRF   09
0841:  BCF    03.7
....................    set_tris_D(0x00); 
0842:  MOVLW  00
0843:  BSF    03.5
0844:  BCF    03.6
0845:  MOVWF  08
....................    set_tris_E(0x00); 
0846:  BCF    09.0
0847:  BCF    09.1
0848:  BCF    09.2
0849:  BCF    09.3
....................     
....................    output_D(0); 
084A:  BCF    03.5
084B:  CLRF   08
....................     
....................    port_b_pullups(255); 
084C:  MOVLW  FF
084D:  BSF    03.5
084E:  MOVWF  15
084F:  BCF    01.7
....................     
....................    setup_adc(ADC_CLOCK_INTERNAL); 
0850:  BCF    03.5
0851:  BSF    1F.6
0852:  BSF    1F.7
0853:  BSF    03.5
0854:  BCF    1F.7
0855:  BCF    03.5
0856:  BSF    1F.0
....................    setup_adc_ports(sAN0); 
0857:  BSF    03.5
0858:  BSF    03.6
0859:  MOVF   09,W
085A:  ANDLW  C0
085B:  MOVWF  09
085C:  BCF    03.6
085D:  BCF    1F.4
085E:  BCF    1F.5
085F:  MOVLW  01
0860:  BSF    03.6
0861:  MOVWF  08
....................    set_adc_channel(0); 
0862:  MOVLW  00
0863:  MOVWF  78
0864:  BCF    03.5
0865:  BCF    03.6
0866:  MOVF   1F,W
0867:  ANDLW  C3
0868:  IORWF  78,W
0869:  MOVWF  1F
....................     
....................    setup_timer_2(T2_DIV_BY_16,155,1); 
086A:  MOVLW  00
086B:  MOVWF  78
086C:  IORLW  06
086D:  MOVWF  12
086E:  MOVLW  9B
086F:  BSF    03.5
0870:  MOVWF  12
....................    setup_ccp1(CCP_OFF); 
0871:  MOVLW  F0
0872:  BCF    03.5
0873:  ANDWF  17,F
....................    setup_ccp2(CCP_OFF); 
0874:  ANDWF  1D,F
....................    setup_timer_1(T1_DISABLED); 
0875:  CLRF   10
....................    f_stop=1; 
0876:  BSF    40.1
....................     
....................    disable_interrupts(INT_TIMER1); 
0877:  BSF    03.5
0878:  BCF    0C.0
....................    enable_interrupts(INT_RB); 
0879:  BCF    03.5
087A:  BSF    0B.3
087B:  MOVLW  FF
087C:  BSF    03.5
087D:  IORWF  16,F
....................    enable_interrupts(GLOBAL); 
087E:  MOVLW  C0
087F:  BCF    03.5
0880:  IORWF  0B,F
....................     
....................    while(true){ 
....................       switch(modo){ 
0881:  MOVF   47,W
0882:  XORLW  41
0883:  BTFSC  03.2
0884:  GOTO   089
0885:  XORLW  0C
0886:  BTFSC  03.2
0887:  GOTO   386
0888:  GOTO   6CA
....................          case 'A': //Automatico 
....................             instruccion = getch(); 
0889:  BCF    0A.3
088A:  CALL   118
088B:  BSF    0A.3
088C:  MOVF   78,W
088D:  MOVWF  48
....................             ///////////////////CODIGO LCD 
....................             lcd_init();  //Inicializamos el LCD 
088E:  BCF    0A.3
088F:  CALL   177
0890:  BSF    0A.3
....................             setup_adc_ports(sAN0);  
0891:  BSF    03.5
0892:  BSF    03.6
0893:  MOVF   09,W
0894:  ANDLW  C0
0895:  MOVWF  09
0896:  BCF    03.6
0897:  BCF    1F.4
0898:  BCF    1F.5
0899:  MOVLW  01
089A:  BSF    03.6
089B:  MOVWF  08
....................             setup_adc(ADC_CLOCK_INTERNAL); //Utilizamos el reloj interno para generar una frecuencia de muestreo 
089C:  BCF    03.5
089D:  BCF    03.6
089E:  BSF    1F.6
089F:  BSF    1F.7
08A0:  BSF    03.5
08A1:  BCF    1F.7
08A2:  BCF    03.5
08A3:  BSF    1F.0
....................             variable=read_adc();  
08A4:  BSF    1F.1
08A5:  BTFSC  1F.1
08A6:  GOTO   0A5
08A7:  CLRF   42
08A8:  MOVF   1E,W
08A9:  MOVWF  41
....................             ventilas = 12+variable/6.7105; //Regla de tres, con una constante para obtener el numero de ventilaciones por minuto  
08AA:  MOVF   42,W
08AB:  MOVWF  4F
08AC:  MOVF   41,W
08AD:  MOVWF  4E
08AE:  BCF    0A.3
08AF:  CALL   1AA
08B0:  BSF    0A.3
08B1:  MOVF   7A,W
08B2:  MOVWF  51
08B3:  MOVF   79,W
08B4:  MOVWF  50
08B5:  MOVF   78,W
08B6:  MOVWF  4F
08B7:  MOVF   77,W
08B8:  MOVWF  4E
08B9:  MOVLW  6A
08BA:  MOVWF  55
08BB:  MOVLW  BC
08BC:  MOVWF  54
08BD:  MOVLW  56
08BE:  MOVWF  53
08BF:  MOVLW  81
08C0:  MOVWF  52
08C1:  BCF    0A.3
08C2:  CALL   1C7
08C3:  BSF    0A.3
08C4:  BCF    03.1
08C5:  CLRF   51
08C6:  CLRF   50
08C7:  MOVLW  40
08C8:  MOVWF  4F
08C9:  MOVLW  82
08CA:  MOVWF  4E
08CB:  MOVF   7A,W
08CC:  MOVWF  55
08CD:  MOVF   79,W
08CE:  MOVWF  54
08CF:  MOVF   78,W
08D0:  MOVWF  53
08D1:  MOVF   77,W
08D2:  MOVWF  52
08D3:  BCF    0A.3
08D4:  CALL   291
08D5:  BSF    0A.3
08D6:  MOVF   7A,W
08D7:  MOVWF  46
08D8:  MOVF   79,W
08D9:  MOVWF  45
08DA:  MOVF   78,W
08DB:  MOVWF  44
08DC:  MOVF   77,W
08DD:  MOVWF  43
....................             printf(lcd_putc, "VentiladorFisico");   
08DE:  MOVLW  F2
08DF:  BSF    03.6
08E0:  MOVWF  0D
08E1:  MOVLW  00
08E2:  MOVWF  0F
08E3:  BCF    0A.3
08E4:  BCF    03.6
08E5:  CALL   409
08E6:  BSF    0A.3
....................             printf(lcd_putc, "\nVentilas/m: %1.0f",ventilas); 
08E7:  MOVLW  FB
08E8:  BSF    03.6
08E9:  MOVWF  0D
08EA:  MOVLW  00
08EB:  MOVWF  0F
08EC:  BCF    03.0
08ED:  MOVLW  0D
08EE:  BCF    03.6
08EF:  MOVWF  4E
08F0:  BCF    0A.3
08F1:  CALL   45F
08F2:  BSF    0A.3
08F3:  MOVLW  00
08F4:  MOVWF  04
08F5:  MOVF   46,W
08F6:  MOVWF  51
08F7:  MOVF   45,W
08F8:  MOVWF  50
08F9:  MOVF   44,W
08FA:  MOVWF  4F
08FB:  MOVF   43,W
08FC:  MOVWF  4E
08FD:  CLRF   52
08FE:  BCF    0A.3
08FF:  CALL   599
0900:  BSF    0A.3
0901:  CLRF   2B
0902:  BTFSC  0B.7
0903:  BSF    2B.7
0904:  BCF    0B.7
....................             delay_ms(100);  
0905:  MOVLW  64
0906:  MOVWF  6C
0907:  BCF    0A.3
0908:  CALL   070
0909:  BSF    0A.3
090A:  BTFSC  2B.7
090B:  BSF    0B.7
....................             printf("%Lu,%1.0f\n\r", variable, ventilas); 
090C:  MOVLW  10
090D:  MOVWF  04
090E:  MOVF   42,W
090F:  MOVWF  4F
0910:  MOVF   41,W
0911:  MOVWF  4E
0912:  BCF    0A.3
0913:  CALL   65C
0914:  BSF    0A.3
0915:  MOVLW  2C
0916:  BTFSS  0C.4
0917:  GOTO   116
0918:  MOVWF  19
0919:  MOVLW  00
091A:  MOVWF  04
091B:  MOVF   46,W
091C:  MOVWF  51
091D:  MOVF   45,W
091E:  MOVWF  50
091F:  MOVF   44,W
0920:  MOVWF  4F
0921:  MOVF   43,W
0922:  MOVWF  4E
0923:  CLRF   52
0924:  BCF    0A.3
0925:  CALL   6B5
0926:  BSF    0A.3
0927:  MOVLW  0A
0928:  BTFSS  0C.4
0929:  GOTO   128
092A:  MOVWF  19
092B:  MOVLW  0D
092C:  BTFSS  0C.4
092D:  GOTO   12C
092E:  MOVWF  19
....................             //////////////////FIN CODIGO LCD 
....................              
....................             if(f_ventilar==1){ 
092F:  BTFSS  40.3
0930:  GOTO   23E
....................                pos=30; 
0931:  CLRF   35
0932:  MOVLW  1E
0933:  MOVWF  34
....................                while(pos<=47){ 
0934:  MOVF   35,F
0935:  BTFSS  03.2
0936:  GOTO   170
0937:  MOVF   34,W
0938:  SUBLW  2F
0939:  BTFSS  03.0
093A:  GOTO   170
....................                   set_pwm1_duty(pos); 
093B:  MOVF   35,W
093C:  MOVWF  79
093D:  MOVF   34,W
093E:  MOVWF  78
093F:  RRF    79,F
0940:  RRF    78,F
0941:  RRF    79,F
0942:  RRF    78,F
0943:  RRF    79,F
0944:  MOVF   78,W
0945:  MOVWF  15
0946:  RRF    79,F
0947:  RRF    79,W
0948:  ANDLW  30
0949:  MOVWF  77
094A:  MOVF   17,W
094B:  ANDLW  CF
094C:  IORWF  77,W
094D:  MOVWF  17
....................                   delay_ms(t_subida); 
094E:  MOVF   37,W
094F:  MOVWF  4E
0950:  INCF   4E,F
0951:  DECF   4E,F
0952:  BTFSC  03.2
0953:  GOTO   160
0954:  CLRF   2B
0955:  BTFSC  0B.7
0956:  BSF    2B.7
0957:  BCF    0B.7
0958:  MOVLW  FF
0959:  MOVWF  6C
095A:  BCF    0A.3
095B:  CALL   070
095C:  BSF    0A.3
095D:  BTFSC  2B.7
095E:  BSF    0B.7
095F:  GOTO   151
0960:  CLRF   2B
0961:  BTFSC  0B.7
0962:  BSF    2B.7
0963:  BCF    0B.7
0964:  MOVF   36,W
0965:  MOVWF  6C
0966:  BCF    0A.3
0967:  CALL   070
0968:  BSF    0A.3
0969:  BTFSC  2B.7
096A:  BSF    0B.7
....................                   pos=pos+1; 
096B:  MOVLW  01
096C:  ADDWF  34,F
096D:  BTFSC  03.0
096E:  INCF   35,F
096F:  GOTO   134
....................                } 
....................                pos=47; 
0970:  CLRF   35
0971:  MOVLW  2F
0972:  MOVWF  34
....................                while(pos<=42){ 
0973:  MOVF   35,F
0974:  BTFSS  03.2
0975:  GOTO   1AF
0976:  MOVF   34,W
0977:  SUBLW  2A
0978:  BTFSS  03.0
0979:  GOTO   1AF
....................                   set_pwm1_duty(pos); 
097A:  MOVF   35,W
097B:  MOVWF  79
097C:  MOVF   34,W
097D:  MOVWF  78
097E:  RRF    79,F
097F:  RRF    78,F
0980:  RRF    79,F
0981:  RRF    78,F
0982:  RRF    79,F
0983:  MOVF   78,W
0984:  MOVWF  15
0985:  RRF    79,F
0986:  RRF    79,W
0987:  ANDLW  30
0988:  MOVWF  77
0989:  MOVF   17,W
098A:  ANDLW  CF
098B:  IORWF  77,W
098C:  MOVWF  17
....................                   delay_ms(t_bajada_meseta); 
098D:  MOVF   39,W
098E:  MOVWF  4E
098F:  INCF   4E,F
0990:  DECF   4E,F
0991:  BTFSC  03.2
0992:  GOTO   19F
0993:  CLRF   2B
0994:  BTFSC  0B.7
0995:  BSF    2B.7
0996:  BCF    0B.7
0997:  MOVLW  FF
0998:  MOVWF  6C
0999:  BCF    0A.3
099A:  CALL   070
099B:  BSF    0A.3
099C:  BTFSC  2B.7
099D:  BSF    0B.7
099E:  GOTO   190
099F:  CLRF   2B
09A0:  BTFSC  0B.7
09A1:  BSF    2B.7
09A2:  BCF    0B.7
09A3:  MOVF   38,W
09A4:  MOVWF  6C
09A5:  BCF    0A.3
09A6:  CALL   070
09A7:  BSF    0A.3
09A8:  BTFSC  2B.7
09A9:  BSF    0B.7
....................                   pos=pos+1; 
09AA:  MOVLW  01
09AB:  ADDWF  34,F
09AC:  BTFSC  03.0
09AD:  INCF   35,F
09AE:  GOTO   173
....................                } 
....................                delay_ms(t_meseta); 
09AF:  MOVF   3B,W
09B0:  MOVWF  4E
09B1:  INCF   4E,F
09B2:  DECF   4E,F
09B3:  BTFSC  03.2
09B4:  GOTO   1C1
09B5:  CLRF   2B
09B6:  BTFSC  0B.7
09B7:  BSF    2B.7
09B8:  BCF    0B.7
09B9:  MOVLW  FF
09BA:  MOVWF  6C
09BB:  BCF    0A.3
09BC:  CALL   070
09BD:  BSF    0A.3
09BE:  BTFSC  2B.7
09BF:  BSF    0B.7
09C0:  GOTO   1B2
09C1:  CLRF   2B
09C2:  BTFSC  0B.7
09C3:  BSF    2B.7
09C4:  BCF    0B.7
09C5:  MOVF   3A,W
09C6:  MOVWF  6C
09C7:  BCF    0A.3
09C8:  CALL   070
09C9:  BSF    0A.3
09CA:  BTFSC  2B.7
09CB:  BSF    0B.7
....................                pos=37; 
09CC:  CLRF   35
09CD:  MOVLW  25
09CE:  MOVWF  34
....................                set_pwm1_duty(pos); 
09CF:  MOVF   35,W
09D0:  MOVWF  79
09D1:  MOVF   34,W
09D2:  MOVWF  78
09D3:  RRF    79,F
09D4:  RRF    78,F
09D5:  RRF    79,F
09D6:  RRF    78,F
09D7:  RRF    79,F
09D8:  MOVF   78,W
09D9:  MOVWF  15
09DA:  RRF    79,F
09DB:  RRF    79,W
09DC:  ANDLW  30
09DD:  MOVWF  77
09DE:  MOVF   17,W
09DF:  ANDLW  CF
09E0:  IORWF  77,W
09E1:  MOVWF  17
....................                 
....................                while(pos>=30){ 
09E2:  MOVF   35,F
09E3:  BTFSS  03.2
09E4:  GOTO   1E9
09E5:  MOVF   34,W
09E6:  SUBLW  1D
09E7:  BTFSC  03.0
09E8:  GOTO   220
....................                   set_pwm1_duty(pos); 
09E9:  MOVF   35,W
09EA:  MOVWF  79
09EB:  MOVF   34,W
09EC:  MOVWF  78
09ED:  RRF    79,F
09EE:  RRF    78,F
09EF:  RRF    79,F
09F0:  RRF    78,F
09F1:  RRF    79,F
09F2:  MOVF   78,W
09F3:  MOVWF  15
09F4:  RRF    79,F
09F5:  RRF    79,W
09F6:  ANDLW  30
09F7:  MOVWF  77
09F8:  MOVF   17,W
09F9:  ANDLW  CF
09FA:  IORWF  77,W
09FB:  MOVWF  17
....................                   delay_ms(t_bajada); 
09FC:  MOVF   3D,W
09FD:  MOVWF  4E
09FE:  INCF   4E,F
09FF:  DECF   4E,F
0A00:  BTFSC  03.2
0A01:  GOTO   20E
0A02:  CLRF   2B
0A03:  BTFSC  0B.7
0A04:  BSF    2B.7
0A05:  BCF    0B.7
0A06:  MOVLW  FF
0A07:  MOVWF  6C
0A08:  BCF    0A.3
0A09:  CALL   070
0A0A:  BSF    0A.3
0A0B:  BTFSC  2B.7
0A0C:  BSF    0B.7
0A0D:  GOTO   1FF
0A0E:  CLRF   2B
0A0F:  BTFSC  0B.7
0A10:  BSF    2B.7
0A11:  BCF    0B.7
0A12:  MOVF   3C,W
0A13:  MOVWF  6C
0A14:  BCF    0A.3
0A15:  CALL   070
0A16:  BSF    0A.3
0A17:  BTFSC  2B.7
0A18:  BSF    0B.7
....................                   pos=pos-1; 
0A19:  MOVLW  01
0A1A:  SUBWF  34,F
0A1B:  MOVLW  00
0A1C:  BTFSS  03.0
0A1D:  MOVLW  01
0A1E:  SUBWF  35,F
0A1F:  GOTO   1E2
....................                } 
....................                delay_ms(t_pausa); 
0A20:  MOVF   3F,W
0A21:  MOVWF  4E
0A22:  INCF   4E,F
0A23:  DECF   4E,F
0A24:  BTFSC  03.2
0A25:  GOTO   232
0A26:  CLRF   2B
0A27:  BTFSC  0B.7
0A28:  BSF    2B.7
0A29:  BCF    0B.7
0A2A:  MOVLW  FF
0A2B:  MOVWF  6C
0A2C:  BCF    0A.3
0A2D:  CALL   070
0A2E:  BSF    0A.3
0A2F:  BTFSC  2B.7
0A30:  BSF    0B.7
0A31:  GOTO   223
0A32:  CLRF   2B
0A33:  BTFSC  0B.7
0A34:  BSF    2B.7
0A35:  BCF    0B.7
0A36:  MOVF   3E,W
0A37:  MOVWF  6C
0A38:  BCF    0A.3
0A39:  CALL   070
0A3A:  BSF    0A.3
0A3B:  BTFSC  2B.7
0A3C:  BSF    0B.7
....................             } 
0A3D:  GOTO   37F
....................             else if(f_inicio==1){ 
0A3E:  BTFSS  40.2
0A3F:  GOTO   339
....................                seg_ondulacion=60000.0/var_respiraciones; 
0A40:  CLRF   4F
0A41:  MOVF   2D,W
0A42:  MOVWF  4E
0A43:  BCF    0A.3
0A44:  CALL   1AA
0A45:  BSF    0A.3
0A46:  CLRF   51
0A47:  MOVLW  60
0A48:  MOVWF  50
0A49:  MOVLW  6A
0A4A:  MOVWF  4F
0A4B:  MOVLW  8E
0A4C:  MOVWF  4E
0A4D:  MOVF   7A,W
0A4E:  MOVWF  55
0A4F:  MOVF   79,W
0A50:  MOVWF  54
0A51:  MOVF   78,W
0A52:  MOVWF  53
0A53:  MOVF   77,W
0A54:  MOVWF  52
0A55:  BCF    0A.3
0A56:  CALL   1C7
0A57:  BSF    0A.3
0A58:  MOVF   7A,W
0A59:  MOVWF  33
0A5A:  MOVF   79,W
0A5B:  MOVWF  32
0A5C:  MOVF   78,W
0A5D:  MOVWF  31
0A5E:  MOVF   77,W
0A5F:  MOVWF  30
....................                t_subida=seg_ondulacion*0.0123529; 
0A60:  MOVF   33,W
0A61:  MOVWF  5E
0A62:  MOVF   32,W
0A63:  MOVWF  5D
0A64:  MOVF   31,W
0A65:  MOVWF  5C
0A66:  MOVF   30,W
0A67:  MOVWF  5B
0A68:  MOVLW  D1
0A69:  MOVWF  62
0A6A:  MOVLW  63
0A6B:  MOVWF  61
0A6C:  MOVLW  4A
0A6D:  MOVWF  60
0A6E:  MOVLW  78
0A6F:  MOVWF  5F
0A70:  BCF    0A.3
0A71:  CALL   4B6
0A72:  BSF    0A.3
0A73:  MOVF   7A,W
0A74:  MOVWF  51
0A75:  MOVF   79,W
0A76:  MOVWF  50
0A77:  MOVF   78,W
0A78:  MOVWF  4F
0A79:  MOVF   77,W
0A7A:  MOVWF  4E
0A7B:  BCF    0A.3
0A7C:  CALL   77C
0A7D:  BSF    0A.3
0A7E:  MOVF   79,W
0A7F:  MOVWF  37
0A80:  MOVF   78,W
0A81:  MOVWF  36
....................                t_bajada_meseta=seg_ondulacion*0.016; 
0A82:  MOVF   33,W
0A83:  MOVWF  5E
0A84:  MOVF   32,W
0A85:  MOVWF  5D
0A86:  MOVF   31,W
0A87:  MOVWF  5C
0A88:  MOVF   30,W
0A89:  MOVWF  5B
0A8A:  MOVLW  6F
0A8B:  MOVWF  62
0A8C:  MOVLW  12
0A8D:  MOVWF  61
0A8E:  MOVLW  03
0A8F:  MOVWF  60
0A90:  MOVLW  79
0A91:  MOVWF  5F
0A92:  BCF    0A.3
0A93:  CALL   4B6
0A94:  BSF    0A.3
0A95:  MOVF   7A,W
0A96:  MOVWF  51
0A97:  MOVF   79,W
0A98:  MOVWF  50
0A99:  MOVF   78,W
0A9A:  MOVWF  4F
0A9B:  MOVF   77,W
0A9C:  MOVWF  4E
0A9D:  BCF    0A.3
0A9E:  CALL   77C
0A9F:  BSF    0A.3
0AA0:  MOVF   79,W
0AA1:  MOVWF  39
0AA2:  MOVF   78,W
0AA3:  MOVWF  38
....................                t_meseta=seg_ondulacion*0.14; 
0AA4:  MOVF   33,W
0AA5:  MOVWF  5E
0AA6:  MOVF   32,W
0AA7:  MOVWF  5D
0AA8:  MOVF   31,W
0AA9:  MOVWF  5C
0AAA:  MOVF   30,W
0AAB:  MOVWF  5B
0AAC:  MOVLW  29
0AAD:  MOVWF  62
0AAE:  MOVLW  5C
0AAF:  MOVWF  61
0AB0:  MOVLW  0F
0AB1:  MOVWF  60
0AB2:  MOVLW  7C
0AB3:  MOVWF  5F
0AB4:  BCF    0A.3
0AB5:  CALL   4B6
0AB6:  BSF    0A.3
0AB7:  MOVF   7A,W
0AB8:  MOVWF  51
0AB9:  MOVF   79,W
0ABA:  MOVWF  50
0ABB:  MOVF   78,W
0ABC:  MOVWF  4F
0ABD:  MOVF   77,W
0ABE:  MOVWF  4E
0ABF:  BCF    0A.3
0AC0:  CALL   77C
0AC1:  BSF    0A.3
0AC2:  MOVF   79,W
0AC3:  MOVWF  3B
0AC4:  MOVF   78,W
0AC5:  MOVWF  3A
....................                t_bajada=seg_ondulacion*0.0442857; 
0AC6:  MOVF   33,W
0AC7:  MOVWF  5E
0AC8:  MOVF   32,W
0AC9:  MOVWF  5D
0ACA:  MOVF   31,W
0ACB:  MOVWF  5C
0ACC:  MOVF   30,W
0ACD:  MOVWF  5B
0ACE:  MOVLW  EC
0ACF:  MOVWF  62
0AD0:  MOVLW  64
0AD1:  MOVWF  61
0AD2:  MOVLW  35
0AD3:  MOVWF  60
0AD4:  MOVLW  7A
0AD5:  MOVWF  5F
0AD6:  BCF    0A.3
0AD7:  CALL   4B6
0AD8:  BSF    0A.3
0AD9:  MOVF   7A,W
0ADA:  MOVWF  51
0ADB:  MOVF   79,W
0ADC:  MOVWF  50
0ADD:  MOVF   78,W
0ADE:  MOVWF  4F
0ADF:  MOVF   77,W
0AE0:  MOVWF  4E
0AE1:  BCF    0A.3
0AE2:  CALL   77C
0AE3:  BSF    0A.3
0AE4:  MOVF   79,W
0AE5:  MOVWF  3D
0AE6:  MOVF   78,W
0AE7:  MOVWF  3C
....................                t_pausa=seg_ondulacion*0.26; 
0AE8:  MOVF   33,W
0AE9:  MOVWF  5E
0AEA:  MOVF   32,W
0AEB:  MOVWF  5D
0AEC:  MOVF   31,W
0AED:  MOVWF  5C
0AEE:  MOVF   30,W
0AEF:  MOVWF  5B
0AF0:  MOVLW  B8
0AF1:  MOVWF  62
0AF2:  MOVLW  1E
0AF3:  MOVWF  61
0AF4:  MOVLW  05
0AF5:  MOVWF  60
0AF6:  MOVLW  7D
0AF7:  MOVWF  5F
0AF8:  BCF    0A.3
0AF9:  CALL   4B6
0AFA:  BSF    0A.3
0AFB:  MOVF   7A,W
0AFC:  MOVWF  51
0AFD:  MOVF   79,W
0AFE:  MOVWF  50
0AFF:  MOVF   78,W
0B00:  MOVWF  4F
0B01:  MOVF   77,W
0B02:  MOVWF  4E
0B03:  BCF    0A.3
0B04:  CALL   77C
0B05:  BSF    0A.3
0B06:  MOVF   79,W
0B07:  MOVWF  3F
0B08:  MOVF   78,W
0B09:  MOVWF  3E
....................                 
....................                f_ventilar=1; 
0B0A:  BSF    40.3
....................                f_inicio=0; 
0B0B:  BCF    40.2
....................                f_stop=0; 
0B0C:  BCF    40.1
....................                setup_ccp1(CCP_PWM); 
0B0D:  BCF    49.2
0B0E:  MOVF   49,W
0B0F:  BSF    03.5
0B10:  MOVWF  07
0B11:  BCF    03.5
0B12:  BCF    07.2
0B13:  MOVLW  0C
0B14:  MOVWF  17
0B15:  BSF    03.5
0B16:  CLRF   1B
0B17:  CLRF   1C
0B18:  MOVLW  01
0B19:  MOVWF  1D
....................                set_pwm1_duty(pos); 
0B1A:  BCF    03.5
0B1B:  MOVF   35,W
0B1C:  MOVWF  79
0B1D:  MOVF   34,W
0B1E:  MOVWF  78
0B1F:  RRF    79,F
0B20:  RRF    78,F
0B21:  RRF    79,F
0B22:  RRF    78,F
0B23:  RRF    79,F
0B24:  MOVF   78,W
0B25:  MOVWF  15
0B26:  RRF    79,F
0B27:  RRF    79,W
0B28:  ANDLW  30
0B29:  MOVWF  77
0B2A:  MOVF   17,W
0B2B:  ANDLW  CF
0B2C:  IORWF  77,W
0B2D:  MOVWF  17
....................                 
....................                enable_interrupts(INT_TIMER1); 
0B2E:  BSF    03.5
0B2F:  BSF    0C.0
....................                setup_timer_1(T1_INTERNAL|T1_DIV_BY_1); 
0B30:  MOVLW  05
0B31:  BCF    03.5
0B32:  MOVWF  10
....................                set_timer1(53036); 
0B33:  CLRF   0E
0B34:  MOVLW  CF
0B35:  MOVWF  0F
0B36:  MOVLW  2C
0B37:  MOVWF  0E
....................             } 
0B38:  GOTO   37F
....................             else if(f_stop==1){ 
0B39:  BTFSS  40.1
0B3A:  GOTO   37F
....................                var_adc=read_adc(); 
0B3B:  BSF    1F.1
0B3C:  BTFSC  1F.1
0B3D:  GOTO   33C
0B3E:  CLRF   2F
0B3F:  MOVF   1E,W
0B40:  MOVWF  2E
....................                var_respiraciones=12+var_adc/6.7105; 
0B41:  MOVF   2F,W
0B42:  MOVWF  4F
0B43:  MOVF   2E,W
0B44:  MOVWF  4E
0B45:  BCF    0A.3
0B46:  CALL   1AA
0B47:  BSF    0A.3
0B48:  MOVF   7A,W
0B49:  MOVWF  51
0B4A:  MOVF   79,W
0B4B:  MOVWF  50
0B4C:  MOVF   78,W
0B4D:  MOVWF  4F
0B4E:  MOVF   77,W
0B4F:  MOVWF  4E
0B50:  MOVLW  6A
0B51:  MOVWF  55
0B52:  MOVLW  BC
0B53:  MOVWF  54
0B54:  MOVLW  56
0B55:  MOVWF  53
0B56:  MOVLW  81
0B57:  MOVWF  52
0B58:  BCF    0A.3
0B59:  CALL   1C7
0B5A:  BSF    0A.3
0B5B:  BCF    03.1
0B5C:  CLRF   51
0B5D:  CLRF   50
0B5E:  MOVLW  40
0B5F:  MOVWF  4F
0B60:  MOVLW  82
0B61:  MOVWF  4E
0B62:  MOVF   7A,W
0B63:  MOVWF  55
0B64:  MOVF   79,W
0B65:  MOVWF  54
0B66:  MOVF   78,W
0B67:  MOVWF  53
0B68:  MOVF   77,W
0B69:  MOVWF  52
0B6A:  BCF    0A.3
0B6B:  CALL   291
0B6C:  BSF    0A.3
0B6D:  MOVF   7A,W
0B6E:  MOVWF  51
0B6F:  MOVF   79,W
0B70:  MOVWF  50
0B71:  MOVF   78,W
0B72:  MOVWF  4F
0B73:  MOVF   77,W
0B74:  MOVWF  4E
0B75:  BCF    0A.3
0B76:  CALL   77C
0B77:  BSF    0A.3
0B78:  MOVF   78,W
0B79:  MOVWF  2D
....................                mostrar_variable(var_respiraciones); 
0B7A:  MOVF   2D,W
0B7B:  MOVWF  4E
0B7C:  BCF    0A.3
0B7D:  CALL   79B
0B7E:  BSF    0A.3
....................             } 
....................             if (instruccion == 'M'){ 
0B7F:  MOVF   48,W
0B80:  SUBLW  4D
0B81:  BTFSS  03.2
0B82:  GOTO   385
....................                modo = 'M'; 
0B83:  MOVLW  4D
0B84:  MOVWF  47
....................             } 
....................             break; 
0B85:  GOTO   6CA
....................          case 'M': //Manual 
....................             instruccion = getch(); 
0B86:  BCF    0A.3
0B87:  CALL   118
0B88:  BSF    0A.3
0B89:  MOVF   78,W
0B8A:  MOVWF  48
....................             lcd_init();  //Inicializamos el LCD 
0B8B:  BCF    0A.3
0B8C:  CALL   177
0B8D:  BSF    0A.3
....................             setup_adc_ports(sAN0);  
0B8E:  BSF    03.5
0B8F:  BSF    03.6
0B90:  MOVF   09,W
0B91:  ANDLW  C0
0B92:  MOVWF  09
0B93:  BCF    03.6
0B94:  BCF    1F.4
0B95:  BCF    1F.5
0B96:  MOVLW  01
0B97:  BSF    03.6
0B98:  MOVWF  08
....................             setup_adc(ADC_CLOCK_INTERNAL); //Utilizamos el reloj interno para generar una frecuencia de muestreo 
0B99:  BCF    03.5
0B9A:  BCF    03.6
0B9B:  BSF    1F.6
0B9C:  BSF    1F.7
0B9D:  BSF    03.5
0B9E:  BCF    1F.7
0B9F:  BCF    03.5
0BA0:  BSF    1F.0
....................             variable=read_adc();  
0BA1:  BSF    1F.1
0BA2:  BTFSC  1F.1
0BA3:  GOTO   3A2
0BA4:  CLRF   42
0BA5:  MOVF   1E,W
0BA6:  MOVWF  41
....................             ventilas = 12+variable/6.7105; //Regla de tres, con una constante para obtener el numero de ventilaciones por minuto  
0BA7:  MOVF   42,W
0BA8:  MOVWF  4F
0BA9:  MOVF   41,W
0BAA:  MOVWF  4E
0BAB:  BCF    0A.3
0BAC:  CALL   1AA
0BAD:  BSF    0A.3
0BAE:  MOVF   7A,W
0BAF:  MOVWF  51
0BB0:  MOVF   79,W
0BB1:  MOVWF  50
0BB2:  MOVF   78,W
0BB3:  MOVWF  4F
0BB4:  MOVF   77,W
0BB5:  MOVWF  4E
0BB6:  MOVLW  6A
0BB7:  MOVWF  55
0BB8:  MOVLW  BC
0BB9:  MOVWF  54
0BBA:  MOVLW  56
0BBB:  MOVWF  53
0BBC:  MOVLW  81
0BBD:  MOVWF  52
0BBE:  BCF    0A.3
0BBF:  CALL   1C7
0BC0:  BSF    0A.3
0BC1:  BCF    03.1
0BC2:  CLRF   51
0BC3:  CLRF   50
0BC4:  MOVLW  40
0BC5:  MOVWF  4F
0BC6:  MOVLW  82
0BC7:  MOVWF  4E
0BC8:  MOVF   7A,W
0BC9:  MOVWF  55
0BCA:  MOVF   79,W
0BCB:  MOVWF  54
0BCC:  MOVF   78,W
0BCD:  MOVWF  53
0BCE:  MOVF   77,W
0BCF:  MOVWF  52
0BD0:  BCF    0A.3
0BD1:  CALL   291
0BD2:  BSF    0A.3
0BD3:  MOVF   7A,W
0BD4:  MOVWF  46
0BD5:  MOVF   79,W
0BD6:  MOVWF  45
0BD7:  MOVF   78,W
0BD8:  MOVWF  44
0BD9:  MOVF   77,W
0BDA:  MOVWF  43
....................             printf(lcd_putc, "VentiladorManual");   
0BDB:  MOVLW  05
0BDC:  BSF    03.6
0BDD:  MOVWF  0D
0BDE:  MOVLW  01
0BDF:  MOVWF  0F
0BE0:  BCF    0A.3
0BE1:  BCF    03.6
0BE2:  CALL   409
0BE3:  BSF    0A.3
....................             printf(lcd_putc, "\nVentilas/m: %1.0f",ventilas); 
0BE4:  MOVLW  0E
0BE5:  BSF    03.6
0BE6:  MOVWF  0D
0BE7:  MOVLW  01
0BE8:  MOVWF  0F
0BE9:  BCF    03.0
0BEA:  MOVLW  0D
0BEB:  BCF    03.6
0BEC:  MOVWF  4E
0BED:  BCF    0A.3
0BEE:  CALL   45F
0BEF:  BSF    0A.3
0BF0:  MOVLW  00
0BF1:  MOVWF  04
0BF2:  MOVF   46,W
0BF3:  MOVWF  51
0BF4:  MOVF   45,W
0BF5:  MOVWF  50
0BF6:  MOVF   44,W
0BF7:  MOVWF  4F
0BF8:  MOVF   43,W
0BF9:  MOVWF  4E
0BFA:  CLRF   52
0BFB:  BCF    0A.3
0BFC:  CALL   599
0BFD:  BSF    0A.3
0BFE:  CLRF   2B
0BFF:  BTFSC  0B.7
0C00:  BSF    2B.7
0C01:  BCF    0B.7
....................             delay_ms(100);  
0C02:  MOVLW  64
0C03:  MOVWF  6C
0C04:  BCF    0A.3
0C05:  CALL   070
0C06:  BSF    0A.3
0C07:  BTFSC  2B.7
0C08:  BSF    0B.7
....................             printf("%Lu,%1.0f\n\r", variable, ventilas); 
0C09:  MOVLW  10
0C0A:  MOVWF  04
0C0B:  MOVF   42,W
0C0C:  MOVWF  4F
0C0D:  MOVF   41,W
0C0E:  MOVWF  4E
0C0F:  BCF    0A.3
0C10:  CALL   65C
0C11:  BSF    0A.3
0C12:  MOVLW  2C
0C13:  BTFSS  0C.4
0C14:  GOTO   413
0C15:  MOVWF  19
0C16:  MOVLW  00
0C17:  MOVWF  04
0C18:  MOVF   46,W
0C19:  MOVWF  51
0C1A:  MOVF   45,W
0C1B:  MOVWF  50
0C1C:  MOVF   44,W
0C1D:  MOVWF  4F
0C1E:  MOVF   43,W
0C1F:  MOVWF  4E
0C20:  CLRF   52
0C21:  BCF    0A.3
0C22:  CALL   6B5
0C23:  BSF    0A.3
0C24:  MOVLW  0A
0C25:  BTFSS  0C.4
0C26:  GOTO   425
0C27:  MOVWF  19
0C28:  MOVLW  0D
0C29:  BTFSS  0C.4
0C2A:  GOTO   429
0C2B:  MOVWF  19
....................             /////////////////FIN CODIGO LCD 
....................             if(instruccion == 'I'){ 
0C2C:  MOVF   48,W
0C2D:  SUBLW  49
0C2E:  BTFSS  03.2
0C2F:  GOTO   432
....................                f_inicio=1; 
0C30:  BSF    40.2
....................             } 
0C31:  GOTO   478
....................             else if(instruccion =='P'){ 
0C32:  MOVF   48,W
0C33:  SUBLW  50
0C34:  BTFSS  03.2
0C35:  GOTO   439
....................                reset_cpu(); 
0C36:  CLRF   0A
0C37:  GOTO   000
....................             } 
0C38:  GOTO   478
....................             else if(instruccion =='E'){ 
0C39:  MOVF   48,W
0C3A:  SUBLW  45
0C3B:  BTFSS  03.2
0C3C:  GOTO   478
....................                if(f_emergencia==0){ 
0C3D:  BTFSC  40.0
0C3E:  GOTO   460
....................                   setup_ccp2(CCP_PWM); 
0C3F:  BCF    49.1
0C40:  MOVF   49,W
0C41:  BSF    03.5
0C42:  MOVWF  07
0C43:  BCF    03.5
0C44:  BCF    07.1
0C45:  MOVLW  0C
0C46:  MOVWF  1D
....................                   int16 pwm_sonido=315; 
0C47:  MOVLW  01
0C48:  MOVWF  4B
0C49:  MOVLW  3B
0C4A:  MOVWF  4A
....................                   set_pwm2_duty(pwm_sonido); 
0C4B:  MOVF   4B,W
0C4C:  MOVWF  79
0C4D:  MOVF   4A,W
0C4E:  MOVWF  78
0C4F:  RRF    79,F
0C50:  RRF    78,F
0C51:  RRF    79,F
0C52:  RRF    78,F
0C53:  RRF    79,F
0C54:  MOVF   78,W
0C55:  MOVWF  1B
0C56:  RRF    79,F
0C57:  RRF    79,W
0C58:  ANDLW  30
0C59:  MOVWF  77
0C5A:  MOVF   1D,W
0C5B:  ANDLW  CF
0C5C:  IORWF  77,W
0C5D:  MOVWF  1D
....................                   f_emergencia=1; 
0C5E:  BSF    40.0
....................                } 
0C5F:  GOTO   478
....................                else{ 
....................                   f_emergencia=0; 
0C60:  BCF    40.0
....................                   setup_ccp1(CCP_OFF); 
0C61:  MOVLW  F0
0C62:  ANDWF  17,F
....................                   int16 pwm_sonido=0; 
0C63:  CLRF   4D
0C64:  CLRF   4C
....................                   set_pwm2_duty(pwm_sonido); 
0C65:  MOVF   4D,W
0C66:  MOVWF  79
0C67:  MOVF   4C,W
0C68:  MOVWF  78
0C69:  RRF    79,F
0C6A:  RRF    78,F
0C6B:  RRF    79,F
0C6C:  RRF    78,F
0C6D:  RRF    79,F
0C6E:  MOVF   78,W
0C6F:  MOVWF  1B
0C70:  RRF    79,F
0C71:  RRF    79,W
0C72:  ANDLW  30
0C73:  MOVWF  77
0C74:  MOVF   1D,W
0C75:  ANDLW  CF
0C76:  IORWF  77,W
0C77:  MOVWF  1D
....................                } 
....................             } 
....................             while(true){ 
....................                if(f_ventilar==1){ 
0C78:  BTFSS  40.3
0C79:  GOTO   587
....................                   pos=30; 
0C7A:  CLRF   35
0C7B:  MOVLW  1E
0C7C:  MOVWF  34
....................                   while(pos<=47){ 
0C7D:  MOVF   35,F
0C7E:  BTFSS  03.2
0C7F:  GOTO   4B9
0C80:  MOVF   34,W
0C81:  SUBLW  2F
0C82:  BTFSS  03.0
0C83:  GOTO   4B9
....................                      set_pwm1_duty(pos); 
0C84:  MOVF   35,W
0C85:  MOVWF  79
0C86:  MOVF   34,W
0C87:  MOVWF  78
0C88:  RRF    79,F
0C89:  RRF    78,F
0C8A:  RRF    79,F
0C8B:  RRF    78,F
0C8C:  RRF    79,F
0C8D:  MOVF   78,W
0C8E:  MOVWF  15
0C8F:  RRF    79,F
0C90:  RRF    79,W
0C91:  ANDLW  30
0C92:  MOVWF  77
0C93:  MOVF   17,W
0C94:  ANDLW  CF
0C95:  IORWF  77,W
0C96:  MOVWF  17
....................                      delay_ms(t_subida); 
0C97:  MOVF   37,W
0C98:  MOVWF  4E
0C99:  INCF   4E,F
0C9A:  DECF   4E,F
0C9B:  BTFSC  03.2
0C9C:  GOTO   4A9
0C9D:  CLRF   2B
0C9E:  BTFSC  0B.7
0C9F:  BSF    2B.7
0CA0:  BCF    0B.7
0CA1:  MOVLW  FF
0CA2:  MOVWF  6C
0CA3:  BCF    0A.3
0CA4:  CALL   070
0CA5:  BSF    0A.3
0CA6:  BTFSC  2B.7
0CA7:  BSF    0B.7
0CA8:  GOTO   49A
0CA9:  CLRF   2B
0CAA:  BTFSC  0B.7
0CAB:  BSF    2B.7
0CAC:  BCF    0B.7
0CAD:  MOVF   36,W
0CAE:  MOVWF  6C
0CAF:  BCF    0A.3
0CB0:  CALL   070
0CB1:  BSF    0A.3
0CB2:  BTFSC  2B.7
0CB3:  BSF    0B.7
....................                      pos=pos+1; 
0CB4:  MOVLW  01
0CB5:  ADDWF  34,F
0CB6:  BTFSC  03.0
0CB7:  INCF   35,F
0CB8:  GOTO   47D
....................                   } 
....................                   pos=47; 
0CB9:  CLRF   35
0CBA:  MOVLW  2F
0CBB:  MOVWF  34
....................                   while(pos<=42){ 
0CBC:  MOVF   35,F
0CBD:  BTFSS  03.2
0CBE:  GOTO   4F8
0CBF:  MOVF   34,W
0CC0:  SUBLW  2A
0CC1:  BTFSS  03.0
0CC2:  GOTO   4F8
....................                      set_pwm1_duty(pos); 
0CC3:  MOVF   35,W
0CC4:  MOVWF  79
0CC5:  MOVF   34,W
0CC6:  MOVWF  78
0CC7:  RRF    79,F
0CC8:  RRF    78,F
0CC9:  RRF    79,F
0CCA:  RRF    78,F
0CCB:  RRF    79,F
0CCC:  MOVF   78,W
0CCD:  MOVWF  15
0CCE:  RRF    79,F
0CCF:  RRF    79,W
0CD0:  ANDLW  30
0CD1:  MOVWF  77
0CD2:  MOVF   17,W
0CD3:  ANDLW  CF
0CD4:  IORWF  77,W
0CD5:  MOVWF  17
....................                      delay_ms(t_bajada_meseta); 
0CD6:  MOVF   39,W
0CD7:  MOVWF  4E
0CD8:  INCF   4E,F
0CD9:  DECF   4E,F
0CDA:  BTFSC  03.2
0CDB:  GOTO   4E8
0CDC:  CLRF   2B
0CDD:  BTFSC  0B.7
0CDE:  BSF    2B.7
0CDF:  BCF    0B.7
0CE0:  MOVLW  FF
0CE1:  MOVWF  6C
0CE2:  BCF    0A.3
0CE3:  CALL   070
0CE4:  BSF    0A.3
0CE5:  BTFSC  2B.7
0CE6:  BSF    0B.7
0CE7:  GOTO   4D9
0CE8:  CLRF   2B
0CE9:  BTFSC  0B.7
0CEA:  BSF    2B.7
0CEB:  BCF    0B.7
0CEC:  MOVF   38,W
0CED:  MOVWF  6C
0CEE:  BCF    0A.3
0CEF:  CALL   070
0CF0:  BSF    0A.3
0CF1:  BTFSC  2B.7
0CF2:  BSF    0B.7
....................                      pos=pos+1; 
0CF3:  MOVLW  01
0CF4:  ADDWF  34,F
0CF5:  BTFSC  03.0
0CF6:  INCF   35,F
0CF7:  GOTO   4BC
....................                   } 
....................                   delay_ms(t_meseta); 
0CF8:  MOVF   3B,W
0CF9:  MOVWF  4E
0CFA:  INCF   4E,F
0CFB:  DECF   4E,F
0CFC:  BTFSC  03.2
0CFD:  GOTO   50A
0CFE:  CLRF   2B
0CFF:  BTFSC  0B.7
0D00:  BSF    2B.7
0D01:  BCF    0B.7
0D02:  MOVLW  FF
0D03:  MOVWF  6C
0D04:  BCF    0A.3
0D05:  CALL   070
0D06:  BSF    0A.3
0D07:  BTFSC  2B.7
0D08:  BSF    0B.7
0D09:  GOTO   4FB
0D0A:  CLRF   2B
0D0B:  BTFSC  0B.7
0D0C:  BSF    2B.7
0D0D:  BCF    0B.7
0D0E:  MOVF   3A,W
0D0F:  MOVWF  6C
0D10:  BCF    0A.3
0D11:  CALL   070
0D12:  BSF    0A.3
0D13:  BTFSC  2B.7
0D14:  BSF    0B.7
....................                   pos=37; 
0D15:  CLRF   35
0D16:  MOVLW  25
0D17:  MOVWF  34
....................                   set_pwm1_duty(pos); 
0D18:  MOVF   35,W
0D19:  MOVWF  79
0D1A:  MOVF   34,W
0D1B:  MOVWF  78
0D1C:  RRF    79,F
0D1D:  RRF    78,F
0D1E:  RRF    79,F
0D1F:  RRF    78,F
0D20:  RRF    79,F
0D21:  MOVF   78,W
0D22:  MOVWF  15
0D23:  RRF    79,F
0D24:  RRF    79,W
0D25:  ANDLW  30
0D26:  MOVWF  77
0D27:  MOVF   17,W
0D28:  ANDLW  CF
0D29:  IORWF  77,W
0D2A:  MOVWF  17
....................                       
....................                   while(pos>=30){ 
0D2B:  MOVF   35,F
0D2C:  BTFSS  03.2
0D2D:  GOTO   532
0D2E:  MOVF   34,W
0D2F:  SUBLW  1D
0D30:  BTFSC  03.0
0D31:  GOTO   569
....................                      set_pwm1_duty(pos); 
0D32:  MOVF   35,W
0D33:  MOVWF  79
0D34:  MOVF   34,W
0D35:  MOVWF  78
0D36:  RRF    79,F
0D37:  RRF    78,F
0D38:  RRF    79,F
0D39:  RRF    78,F
0D3A:  RRF    79,F
0D3B:  MOVF   78,W
0D3C:  MOVWF  15
0D3D:  RRF    79,F
0D3E:  RRF    79,W
0D3F:  ANDLW  30
0D40:  MOVWF  77
0D41:  MOVF   17,W
0D42:  ANDLW  CF
0D43:  IORWF  77,W
0D44:  MOVWF  17
....................                      delay_ms(t_bajada); 
0D45:  MOVF   3D,W
0D46:  MOVWF  4E
0D47:  INCF   4E,F
0D48:  DECF   4E,F
0D49:  BTFSC  03.2
0D4A:  GOTO   557
0D4B:  CLRF   2B
0D4C:  BTFSC  0B.7
0D4D:  BSF    2B.7
0D4E:  BCF    0B.7
0D4F:  MOVLW  FF
0D50:  MOVWF  6C
0D51:  BCF    0A.3
0D52:  CALL   070
0D53:  BSF    0A.3
0D54:  BTFSC  2B.7
0D55:  BSF    0B.7
0D56:  GOTO   548
0D57:  CLRF   2B
0D58:  BTFSC  0B.7
0D59:  BSF    2B.7
0D5A:  BCF    0B.7
0D5B:  MOVF   3C,W
0D5C:  MOVWF  6C
0D5D:  BCF    0A.3
0D5E:  CALL   070
0D5F:  BSF    0A.3
0D60:  BTFSC  2B.7
0D61:  BSF    0B.7
....................                      pos=pos-1; 
0D62:  MOVLW  01
0D63:  SUBWF  34,F
0D64:  MOVLW  00
0D65:  BTFSS  03.0
0D66:  MOVLW  01
0D67:  SUBWF  35,F
0D68:  GOTO   52B
....................                   } 
....................                   delay_ms(t_pausa); 
0D69:  MOVF   3F,W
0D6A:  MOVWF  4E
0D6B:  INCF   4E,F
0D6C:  DECF   4E,F
0D6D:  BTFSC  03.2
0D6E:  GOTO   57B
0D6F:  CLRF   2B
0D70:  BTFSC  0B.7
0D71:  BSF    2B.7
0D72:  BCF    0B.7
0D73:  MOVLW  FF
0D74:  MOVWF  6C
0D75:  BCF    0A.3
0D76:  CALL   070
0D77:  BSF    0A.3
0D78:  BTFSC  2B.7
0D79:  BSF    0B.7
0D7A:  GOTO   56C
0D7B:  CLRF   2B
0D7C:  BTFSC  0B.7
0D7D:  BSF    2B.7
0D7E:  BCF    0B.7
0D7F:  MOVF   3E,W
0D80:  MOVWF  6C
0D81:  BCF    0A.3
0D82:  CALL   070
0D83:  BSF    0A.3
0D84:  BTFSC  2B.7
0D85:  BSF    0B.7
....................                } 
0D86:  GOTO   6C8
....................                else if(f_inicio==1){ 
0D87:  BTFSS  40.2
0D88:  GOTO   682
....................                   seg_ondulacion=60000.0/var_respiraciones; 
0D89:  CLRF   4F
0D8A:  MOVF   2D,W
0D8B:  MOVWF  4E
0D8C:  BCF    0A.3
0D8D:  CALL   1AA
0D8E:  BSF    0A.3
0D8F:  CLRF   51
0D90:  MOVLW  60
0D91:  MOVWF  50
0D92:  MOVLW  6A
0D93:  MOVWF  4F
0D94:  MOVLW  8E
0D95:  MOVWF  4E
0D96:  MOVF   7A,W
0D97:  MOVWF  55
0D98:  MOVF   79,W
0D99:  MOVWF  54
0D9A:  MOVF   78,W
0D9B:  MOVWF  53
0D9C:  MOVF   77,W
0D9D:  MOVWF  52
0D9E:  BCF    0A.3
0D9F:  CALL   1C7
0DA0:  BSF    0A.3
0DA1:  MOVF   7A,W
0DA2:  MOVWF  33
0DA3:  MOVF   79,W
0DA4:  MOVWF  32
0DA5:  MOVF   78,W
0DA6:  MOVWF  31
0DA7:  MOVF   77,W
0DA8:  MOVWF  30
....................                   t_subida=seg_ondulacion*0.0123529; 
0DA9:  MOVF   33,W
0DAA:  MOVWF  5E
0DAB:  MOVF   32,W
0DAC:  MOVWF  5D
0DAD:  MOVF   31,W
0DAE:  MOVWF  5C
0DAF:  MOVF   30,W
0DB0:  MOVWF  5B
0DB1:  MOVLW  D1
0DB2:  MOVWF  62
0DB3:  MOVLW  63
0DB4:  MOVWF  61
0DB5:  MOVLW  4A
0DB6:  MOVWF  60
0DB7:  MOVLW  78
0DB8:  MOVWF  5F
0DB9:  BCF    0A.3
0DBA:  CALL   4B6
0DBB:  BSF    0A.3
0DBC:  MOVF   7A,W
0DBD:  MOVWF  51
0DBE:  MOVF   79,W
0DBF:  MOVWF  50
0DC0:  MOVF   78,W
0DC1:  MOVWF  4F
0DC2:  MOVF   77,W
0DC3:  MOVWF  4E
0DC4:  BCF    0A.3
0DC5:  CALL   77C
0DC6:  BSF    0A.3
0DC7:  MOVF   79,W
0DC8:  MOVWF  37
0DC9:  MOVF   78,W
0DCA:  MOVWF  36
....................                   t_bajada_meseta=seg_ondulacion*0.016; 
0DCB:  MOVF   33,W
0DCC:  MOVWF  5E
0DCD:  MOVF   32,W
0DCE:  MOVWF  5D
0DCF:  MOVF   31,W
0DD0:  MOVWF  5C
0DD1:  MOVF   30,W
0DD2:  MOVWF  5B
0DD3:  MOVLW  6F
0DD4:  MOVWF  62
0DD5:  MOVLW  12
0DD6:  MOVWF  61
0DD7:  MOVLW  03
0DD8:  MOVWF  60
0DD9:  MOVLW  79
0DDA:  MOVWF  5F
0DDB:  BCF    0A.3
0DDC:  CALL   4B6
0DDD:  BSF    0A.3
0DDE:  MOVF   7A,W
0DDF:  MOVWF  51
0DE0:  MOVF   79,W
0DE1:  MOVWF  50
0DE2:  MOVF   78,W
0DE3:  MOVWF  4F
0DE4:  MOVF   77,W
0DE5:  MOVWF  4E
0DE6:  BCF    0A.3
0DE7:  CALL   77C
0DE8:  BSF    0A.3
0DE9:  MOVF   79,W
0DEA:  MOVWF  39
0DEB:  MOVF   78,W
0DEC:  MOVWF  38
....................                   t_meseta=seg_ondulacion*0.14; 
0DED:  MOVF   33,W
0DEE:  MOVWF  5E
0DEF:  MOVF   32,W
0DF0:  MOVWF  5D
0DF1:  MOVF   31,W
0DF2:  MOVWF  5C
0DF3:  MOVF   30,W
0DF4:  MOVWF  5B
0DF5:  MOVLW  29
0DF6:  MOVWF  62
0DF7:  MOVLW  5C
0DF8:  MOVWF  61
0DF9:  MOVLW  0F
0DFA:  MOVWF  60
0DFB:  MOVLW  7C
0DFC:  MOVWF  5F
0DFD:  BCF    0A.3
0DFE:  CALL   4B6
0DFF:  BSF    0A.3
0E00:  MOVF   7A,W
0E01:  MOVWF  51
0E02:  MOVF   79,W
0E03:  MOVWF  50
0E04:  MOVF   78,W
0E05:  MOVWF  4F
0E06:  MOVF   77,W
0E07:  MOVWF  4E
0E08:  BCF    0A.3
0E09:  CALL   77C
0E0A:  BSF    0A.3
0E0B:  MOVF   79,W
0E0C:  MOVWF  3B
0E0D:  MOVF   78,W
0E0E:  MOVWF  3A
....................                   t_bajada=seg_ondulacion*0.0442857; 
0E0F:  MOVF   33,W
0E10:  MOVWF  5E
0E11:  MOVF   32,W
0E12:  MOVWF  5D
0E13:  MOVF   31,W
0E14:  MOVWF  5C
0E15:  MOVF   30,W
0E16:  MOVWF  5B
0E17:  MOVLW  EC
0E18:  MOVWF  62
0E19:  MOVLW  64
0E1A:  MOVWF  61
0E1B:  MOVLW  35
0E1C:  MOVWF  60
0E1D:  MOVLW  7A
0E1E:  MOVWF  5F
0E1F:  BCF    0A.3
0E20:  CALL   4B6
0E21:  BSF    0A.3
0E22:  MOVF   7A,W
0E23:  MOVWF  51
0E24:  MOVF   79,W
0E25:  MOVWF  50
0E26:  MOVF   78,W
0E27:  MOVWF  4F
0E28:  MOVF   77,W
0E29:  MOVWF  4E
0E2A:  BCF    0A.3
0E2B:  CALL   77C
0E2C:  BSF    0A.3
0E2D:  MOVF   79,W
0E2E:  MOVWF  3D
0E2F:  MOVF   78,W
0E30:  MOVWF  3C
....................                   t_pausa=seg_ondulacion*0.26; 
0E31:  MOVF   33,W
0E32:  MOVWF  5E
0E33:  MOVF   32,W
0E34:  MOVWF  5D
0E35:  MOVF   31,W
0E36:  MOVWF  5C
0E37:  MOVF   30,W
0E38:  MOVWF  5B
0E39:  MOVLW  B8
0E3A:  MOVWF  62
0E3B:  MOVLW  1E
0E3C:  MOVWF  61
0E3D:  MOVLW  05
0E3E:  MOVWF  60
0E3F:  MOVLW  7D
0E40:  MOVWF  5F
0E41:  BCF    0A.3
0E42:  CALL   4B6
0E43:  BSF    0A.3
0E44:  MOVF   7A,W
0E45:  MOVWF  51
0E46:  MOVF   79,W
0E47:  MOVWF  50
0E48:  MOVF   78,W
0E49:  MOVWF  4F
0E4A:  MOVF   77,W
0E4B:  MOVWF  4E
0E4C:  BCF    0A.3
0E4D:  CALL   77C
0E4E:  BSF    0A.3
0E4F:  MOVF   79,W
0E50:  MOVWF  3F
0E51:  MOVF   78,W
0E52:  MOVWF  3E
....................                       
....................                   f_ventilar=1; 
0E53:  BSF    40.3
....................                   f_inicio=0; 
0E54:  BCF    40.2
....................                   f_stop=0; 
0E55:  BCF    40.1
....................                   setup_ccp1(CCP_PWM); 
0E56:  BCF    49.2
0E57:  MOVF   49,W
0E58:  BSF    03.5
0E59:  MOVWF  07
0E5A:  BCF    03.5
0E5B:  BCF    07.2
0E5C:  MOVLW  0C
0E5D:  MOVWF  17
0E5E:  BSF    03.5
0E5F:  CLRF   1B
0E60:  CLRF   1C
0E61:  MOVLW  01
0E62:  MOVWF  1D
....................                   set_pwm1_duty(pos); 
0E63:  BCF    03.5
0E64:  MOVF   35,W
0E65:  MOVWF  79
0E66:  MOVF   34,W
0E67:  MOVWF  78
0E68:  RRF    79,F
0E69:  RRF    78,F
0E6A:  RRF    79,F
0E6B:  RRF    78,F
0E6C:  RRF    79,F
0E6D:  MOVF   78,W
0E6E:  MOVWF  15
0E6F:  RRF    79,F
0E70:  RRF    79,W
0E71:  ANDLW  30
0E72:  MOVWF  77
0E73:  MOVF   17,W
0E74:  ANDLW  CF
0E75:  IORWF  77,W
0E76:  MOVWF  17
....................                     
....................                   enable_interrupts(INT_TIMER1); 
0E77:  BSF    03.5
0E78:  BSF    0C.0
....................                   setup_timer_1(T1_INTERNAL|T1_DIV_BY_1); 
0E79:  MOVLW  05
0E7A:  BCF    03.5
0E7B:  MOVWF  10
....................                   set_timer1(53036); 
0E7C:  CLRF   0E
0E7D:  MOVLW  CF
0E7E:  MOVWF  0F
0E7F:  MOVLW  2C
0E80:  MOVWF  0E
....................                } 
0E81:  GOTO   6C8
....................                else if(f_stop==1){ 
0E82:  BTFSS  40.1
0E83:  GOTO   6C8
....................                   var_adc=read_adc(); 
0E84:  BSF    1F.1
0E85:  BTFSC  1F.1
0E86:  GOTO   685
0E87:  CLRF   2F
0E88:  MOVF   1E,W
0E89:  MOVWF  2E
....................                   var_respiraciones=12+var_adc/6.7105; 
0E8A:  MOVF   2F,W
0E8B:  MOVWF  4F
0E8C:  MOVF   2E,W
0E8D:  MOVWF  4E
0E8E:  BCF    0A.3
0E8F:  CALL   1AA
0E90:  BSF    0A.3
0E91:  MOVF   7A,W
0E92:  MOVWF  51
0E93:  MOVF   79,W
0E94:  MOVWF  50
0E95:  MOVF   78,W
0E96:  MOVWF  4F
0E97:  MOVF   77,W
0E98:  MOVWF  4E
0E99:  MOVLW  6A
0E9A:  MOVWF  55
0E9B:  MOVLW  BC
0E9C:  MOVWF  54
0E9D:  MOVLW  56
0E9E:  MOVWF  53
0E9F:  MOVLW  81
0EA0:  MOVWF  52
0EA1:  BCF    0A.3
0EA2:  CALL   1C7
0EA3:  BSF    0A.3
0EA4:  BCF    03.1
0EA5:  CLRF   51
0EA6:  CLRF   50
0EA7:  MOVLW  40
0EA8:  MOVWF  4F
0EA9:  MOVLW  82
0EAA:  MOVWF  4E
0EAB:  MOVF   7A,W
0EAC:  MOVWF  55
0EAD:  MOVF   79,W
0EAE:  MOVWF  54
0EAF:  MOVF   78,W
0EB0:  MOVWF  53
0EB1:  MOVF   77,W
0EB2:  MOVWF  52
0EB3:  BCF    0A.3
0EB4:  CALL   291
0EB5:  BSF    0A.3
0EB6:  MOVF   7A,W
0EB7:  MOVWF  51
0EB8:  MOVF   79,W
0EB9:  MOVWF  50
0EBA:  MOVF   78,W
0EBB:  MOVWF  4F
0EBC:  MOVF   77,W
0EBD:  MOVWF  4E
0EBE:  BCF    0A.3
0EBF:  CALL   77C
0EC0:  BSF    0A.3
0EC1:  MOVF   78,W
0EC2:  MOVWF  2D
....................                   mostrar_variable(var_respiraciones); 
0EC3:  MOVF   2D,W
0EC4:  MOVWF  4E
0EC5:  BCF    0A.3
0EC6:  CALL   79B
0EC7:  BSF    0A.3
....................                }                
....................             break; 
0EC8:  GOTO   6CA
0EC9:  GOTO   478
....................             } 
....................       } 
0ECA:  GOTO   081
....................  
....................    } 
.................... } 
....................  
0ECB:  SLEEP
....................  
.................... void mostrar_variable(int8 var_sep){ 
*
079B:  RETURN
....................  
.................... } 
....................  
.................... void solo_mostrar_variable(void){ 
.................... } 

Configuration Fuses:
   Word  1: 2CE4   INTRC_IO NOWDT PUT MCLR NOPROTECT NOCPD NOBROWNOUT IESO FCMEN NOLVP NODEBUG
   Word  2: 3FFF   BORV40 NOWRT
